

Microchip MPLAB XC8 Assembler V2.40 build 20220703182018 
                                                                                               Wed Mar 01 10:59:36 2023

Microchip MPLAB XC8 C Compiler v2.40 (Free license) build 20220703182018 Og1 
     1                           	processor	16F1827
     2                           	pagewidth 120
     3                           	opt	flic
     4                           	psect	nvBANK1,global,class=BANK1,space=1,delta=1,noexec
     5                           	psect	cinit,global,class=CODE,merge=1,delta=2
     6                           	psect	bssBANK1,global,class=BANK1,space=1,delta=1,noexec
     7                           	psect	cstackBANK1,global,class=BANK1,space=1,delta=1,noexec
     8                           	psect	cstackCOMMON,global,class=COMMON,space=1,delta=1,noexec
     9                           	psect	cstackBANK0,global,class=BANK0,space=1,delta=1,noexec
    10                           	psect	maintext,global,class=CODE,merge=1,split=1,delta=2
    11                           	psect	text1,local,class=CODE,merge=1,delta=2
    12                           	psect	text2,local,class=CODE,merge=1,delta=2
    13                           	psect	text3,local,class=CODE,merge=1,delta=2
    14                           	psect	text4,local,class=CODE,merge=1,delta=2
    15                           	psect	text5,local,class=CODE,merge=1,delta=2
    16                           	psect	text6,local,class=CODE,merge=1,delta=2
    17                           	psect	text7,local,class=CODE,merge=1,delta=2
    18                           	psect	text8,local,class=CODE,merge=1,delta=2
    19                           	psect	text9,local,class=CODE,merge=1,delta=2
    20                           	psect	text10,local,class=CODE,merge=1,delta=2
    21                           	psect	text11,local,class=CODE,merge=1,delta=2
    22                           	psect	text12,local,class=CODE,merge=1,delta=2
    23                           	psect	text13,local,class=CODE,merge=1,delta=2
    24                           	psect	text14,local,class=CODE,merge=1,delta=2
    25                           	psect	text15,local,class=CODE,merge=1,delta=2
    26                           	psect	text16,local,class=CODE,merge=1,delta=2
    27                           	psect	text17,local,class=CODE,merge=1,delta=2
    28                           	psect	text18,local,class=CODE,merge=1,delta=2
    29                           	psect	text19,local,class=CODE,merge=1,delta=2
    30                           	psect	text20,local,class=CODE,merge=1,delta=2
    31                           	psect	text21,local,class=CODE,merge=1,delta=2
    32                           	psect	text22,local,class=CODE,merge=1,delta=2
    33                           	psect	text23,local,class=CODE,merge=1,delta=2
    34                           	psect	text24,local,class=CODE,merge=1,delta=2
    35                           	psect	text25,local,class=CODE,merge=1,delta=2
    36                           	psect	text26,local,class=CODE,merge=1,delta=2
    37                           	psect	text27,local,class=CODE,merge=1,delta=2
    38                           	psect	text28,local,class=CODE,merge=1,delta=2
    39                           	psect	text29,local,class=CODE,merge=1,delta=2
    40                           	psect	text30,local,class=CODE,merge=1,delta=2,group=1
    41                           	psect	text31,local,class=CODE,merge=1,delta=2,group=1
    42                           	psect	text32,local,class=CODE,merge=1,delta=2,group=1
    43                           	psect	text33,local,class=CODE,merge=1,delta=2,group=1
    44                           	psect	text34,local,class=CODE,merge=1,delta=2,group=1
    45                           	psect	text35,local,class=CODE,merge=1,delta=2,group=1
    46                           	psect	text36,local,class=CODE,merge=1,delta=2,group=1
    47                           	psect	idloc,global,abs,ovrld,class=IDLOC,space=5,delta=2,noexec
    48                           	psect	config,global,abs,ovrld,class=CONFIG,space=4,delta=2,noexec
    49                           	dabs	1,0x7E,2
    50     0000                     
    51                           ; Version 2.40
    52                           ; Generated 17/11/2021 GMT
    53                           ; 
    54                           ; Copyright © 2021, Microchip Technology Inc. and its subsidiaries ("Microchip")
    55                           ; All rights reserved.
    56                           ; 
    57                           ; This software is developed by Microchip Technology Inc. and its subsidiaries ("Microch
      +                          ip").
    58                           ; 
    59                           ; Redistribution and use in source and binary forms, with or without modification, are
    60                           ; permitted provided that the following conditions are met:
    61                           ; 
    62                           ;     1. Redistributions of source code must retain the above copyright notice, this lis
      +                          t of
    63                           ;        conditions and the following disclaimer.
    64                           ; 
    65                           ;     2. Redistributions in binary form must reproduce the above copyright notice, this 
      +                          list
    66                           ;        of conditions and the following disclaimer in the documentation and/or other
    67                           ;        materials provided with the distribution. Publication is not required when
    68                           ;        this file is used in an embedded application.
    69                           ; 
    70                           ;     3. Microchip's name may not be used to endorse or promote products derived from th
      +                          is
    71                           ;        software without specific prior written permission.
    72                           ; 
    73                           ; THIS SOFTWARE IS PROVIDED BY MICROCHIP "AS IS" AND ANY EXPRESS OR IMPLIED WARRANTIES,
    74                           ; INCLUDING, BUT NOT LIMITED TO, THE IMPLIED WARRANTIES OF MERCHANTABILITY AND FITNESS F
      +                          OR
    75                           ; PURPOSE ARE DISCLAIMED.  IN NO EVENT SHALL MICROCHIP BE LIABLE FOR ANY DIRECT, INDIREC
      +                          T,
    76                           ; INCIDENTAL, SPECIAL, EXEMPLARY, OR CONSEQUENTIAL DAMAGES (INCLUDING BUT NOT LIMITED TO
    77                           ; PROCUREMENT OF SUBSTITUTE GOODS OR SERVICES; LOSS OF USE, DATA OR PROFITS; OR BUSINESS
    78                           ; INTERRUPTION) HOWSOEVER CAUSED AND ON ANY THEORY OF LIABILITY, WHETHER IN CONTRACT, ST
      +                          RICT
    79                           ; LIABILITY, OR TORT (INCLUDING NEGLIGENCE OR OTHERWISE) ARISING IN ANY WAY OUT OF THE U
      +                          SE OF
    80                           ; THIS SOFTWARE, EVEN IF ADVISED OF THE POSSIBILITY OF SUCH DAMAGE.
    81                           ; 
    82                           ; 
    83                           ; Code-generator required, PIC16F1827 Definitions
    84                           ; 
    85                           ; SFR Addresses
    86     0000                     	;# 
    87     0001                     	;# 
    88     0002                     	;# 
    89     0003                     	;# 
    90     0004                     	;# 
    91     0005                     	;# 
    92     0006                     	;# 
    93     0007                     	;# 
    94     0008                     	;# 
    95     0009                     	;# 
    96     000A                     	;# 
    97     000B                     	;# 
    98     000C                     	;# 
    99     000D                     	;# 
   100     0011                     	;# 
   101     0012                     	;# 
   102     0013                     	;# 
   103     0014                     	;# 
   104     0015                     	;# 
   105     0016                     	;# 
   106     0016                     	;# 
   107     0017                     	;# 
   108     0018                     	;# 
   109     0019                     	;# 
   110     001A                     	;# 
   111     001B                     	;# 
   112     001C                     	;# 
   113     001E                     	;# 
   114     001F                     	;# 
   115     008C                     	;# 
   116     008D                     	;# 
   117     0091                     	;# 
   118     0092                     	;# 
   119     0093                     	;# 
   120     0094                     	;# 
   121     0095                     	;# 
   122     0096                     	;# 
   123     0097                     	;# 
   124     0098                     	;# 
   125     0099                     	;# 
   126     009A                     	;# 
   127     009B                     	;# 
   128     009B                     	;# 
   129     009C                     	;# 
   130     009D                     	;# 
   131     009E                     	;# 
   132     010C                     	;# 
   133     010D                     	;# 
   134     0111                     	;# 
   135     0112                     	;# 
   136     0113                     	;# 
   137     0114                     	;# 
   138     0115                     	;# 
   139     0116                     	;# 
   140     0117                     	;# 
   141     0118                     	;# 
   142     0119                     	;# 
   143     011A                     	;# 
   144     011B                     	;# 
   145     011D                     	;# 
   146     011E                     	;# 
   147     018C                     	;# 
   148     018D                     	;# 
   149     0191                     	;# 
   150     0191                     	;# 
   151     0192                     	;# 
   152     0193                     	;# 
   153     0193                     	;# 
   154     0193                     	;# 
   155     0194                     	;# 
   156     0195                     	;# 
   157     0196                     	;# 
   158     0199                     	;# 
   159     019A                     	;# 
   160     019B                     	;# 
   161     019B                     	;# 
   162     019B                     	;# 
   163     019B                     	;# 
   164     019C                     	;# 
   165     019C                     	;# 
   166     019D                     	;# 
   167     019E                     	;# 
   168     019F                     	;# 
   169     020C                     	;# 
   170     020D                     	;# 
   171     0211                     	;# 
   172     0211                     	;# 
   173     0212                     	;# 
   174     0212                     	;# 
   175     0213                     	;# 
   176     0213                     	;# 
   177     0214                     	;# 
   178     0214                     	;# 
   179     0215                     	;# 
   180     0215                     	;# 
   181     0215                     	;# 
   182     0216                     	;# 
   183     0216                     	;# 
   184     0217                     	;# 
   185     0217                     	;# 
   186     0219                     	;# 
   187     021A                     	;# 
   188     021B                     	;# 
   189     021C                     	;# 
   190     021D                     	;# 
   191     021E                     	;# 
   192     021F                     	;# 
   193     0291                     	;# 
   194     0291                     	;# 
   195     0292                     	;# 
   196     0293                     	;# 
   197     0294                     	;# 
   198     0295                     	;# 
   199     0295                     	;# 
   200     0296                     	;# 
   201     0298                     	;# 
   202     0298                     	;# 
   203     0299                     	;# 
   204     029A                     	;# 
   205     029B                     	;# 
   206     029C                     	;# 
   207     029C                     	;# 
   208     029D                     	;# 
   209     029E                     	;# 
   210     029E                     	;# 
   211     0311                     	;# 
   212     0311                     	;# 
   213     0312                     	;# 
   214     0313                     	;# 
   215     0318                     	;# 
   216     0318                     	;# 
   217     0319                     	;# 
   218     031A                     	;# 
   219     0394                     	;# 
   220     0395                     	;# 
   221     0396                     	;# 
   222     039A                     	;# 
   223     039C                     	;# 
   224     039D                     	;# 
   225     039E                     	;# 
   226     039F                     	;# 
   227     0415                     	;# 
   228     0416                     	;# 
   229     0417                     	;# 
   230     041C                     	;# 
   231     041D                     	;# 
   232     041E                     	;# 
   233     0FE4                     	;# 
   234     0FE5                     	;# 
   235     0FE6                     	;# 
   236     0FE7                     	;# 
   237     0FE8                     	;# 
   238     0FE9                     	;# 
   239     0FEA                     	;# 
   240     0FEB                     	;# 
   241     0FED                     	;# 
   242     0FEE                     	;# 
   243     0FEF                     	;# 
   244     0000                     	;# 
   245     0001                     	;# 
   246     0002                     	;# 
   247     0003                     	;# 
   248     0004                     	;# 
   249     0005                     	;# 
   250     0006                     	;# 
   251     0007                     	;# 
   252     0008                     	;# 
   253     0009                     	;# 
   254     000A                     	;# 
   255     000B                     	;# 
   256     000C                     	;# 
   257     000D                     	;# 
   258     0011                     	;# 
   259     0012                     	;# 
   260     0013                     	;# 
   261     0014                     	;# 
   262     0015                     	;# 
   263     0016                     	;# 
   264     0016                     	;# 
   265     0017                     	;# 
   266     0018                     	;# 
   267     0019                     	;# 
   268     001A                     	;# 
   269     001B                     	;# 
   270     001C                     	;# 
   271     001E                     	;# 
   272     001F                     	;# 
   273     008C                     	;# 
   274     008D                     	;# 
   275     0091                     	;# 
   276     0092                     	;# 
   277     0093                     	;# 
   278     0094                     	;# 
   279     0095                     	;# 
   280     0096                     	;# 
   281     0097                     	;# 
   282     0098                     	;# 
   283     0099                     	;# 
   284     009A                     	;# 
   285     009B                     	;# 
   286     009B                     	;# 
   287     009C                     	;# 
   288     009D                     	;# 
   289     009E                     	;# 
   290     010C                     	;# 
   291     010D                     	;# 
   292     0111                     	;# 
   293     0112                     	;# 
   294     0113                     	;# 
   295     0114                     	;# 
   296     0115                     	;# 
   297     0116                     	;# 
   298     0117                     	;# 
   299     0118                     	;# 
   300     0119                     	;# 
   301     011A                     	;# 
   302     011B                     	;# 
   303     011D                     	;# 
   304     011E                     	;# 
   305     018C                     	;# 
   306     018D                     	;# 
   307     0191                     	;# 
   308     0191                     	;# 
   309     0192                     	;# 
   310     0193                     	;# 
   311     0193                     	;# 
   312     0193                     	;# 
   313     0194                     	;# 
   314     0195                     	;# 
   315     0196                     	;# 
   316     0199                     	;# 
   317     019A                     	;# 
   318     019B                     	;# 
   319     019B                     	;# 
   320     019B                     	;# 
   321     019B                     	;# 
   322     019C                     	;# 
   323     019C                     	;# 
   324     019D                     	;# 
   325     019E                     	;# 
   326     019F                     	;# 
   327     020C                     	;# 
   328     020D                     	;# 
   329     0211                     	;# 
   330     0211                     	;# 
   331     0212                     	;# 
   332     0212                     	;# 
   333     0213                     	;# 
   334     0213                     	;# 
   335     0214                     	;# 
   336     0214                     	;# 
   337     0215                     	;# 
   338     0215                     	;# 
   339     0215                     	;# 
   340     0216                     	;# 
   341     0216                     	;# 
   342     0217                     	;# 
   343     0217                     	;# 
   344     0219                     	;# 
   345     021A                     	;# 
   346     021B                     	;# 
   347     021C                     	;# 
   348     021D                     	;# 
   349     021E                     	;# 
   350     021F                     	;# 
   351     0291                     	;# 
   352     0291                     	;# 
   353     0292                     	;# 
   354     0293                     	;# 
   355     0294                     	;# 
   356     0295                     	;# 
   357     0295                     	;# 
   358     0296                     	;# 
   359     0298                     	;# 
   360     0298                     	;# 
   361     0299                     	;# 
   362     029A                     	;# 
   363     029B                     	;# 
   364     029C                     	;# 
   365     029C                     	;# 
   366     029D                     	;# 
   367     029E                     	;# 
   368     029E                     	;# 
   369     0311                     	;# 
   370     0311                     	;# 
   371     0312                     	;# 
   372     0313                     	;# 
   373     0318                     	;# 
   374     0318                     	;# 
   375     0319                     	;# 
   376     031A                     	;# 
   377     0394                     	;# 
   378     0395                     	;# 
   379     0396                     	;# 
   380     039A                     	;# 
   381     039C                     	;# 
   382     039D                     	;# 
   383     039E                     	;# 
   384     039F                     	;# 
   385     0415                     	;# 
   386     0416                     	;# 
   387     0417                     	;# 
   388     041C                     	;# 
   389     041D                     	;# 
   390     041E                     	;# 
   391     0FE4                     	;# 
   392     0FE5                     	;# 
   393     0FE6                     	;# 
   394     0FE7                     	;# 
   395     0FE8                     	;# 
   396     0FE9                     	;# 
   397     0FEA                     	;# 
   398     0FEB                     	;# 
   399     0FED                     	;# 
   400     0FEE                     	;# 
   401     0FEF                     	;# 
   402     0000                     	;# 
   403     0001                     	;# 
   404     0002                     	;# 
   405     0003                     	;# 
   406     0004                     	;# 
   407     0005                     	;# 
   408     0006                     	;# 
   409     0007                     	;# 
   410     0008                     	;# 
   411     0009                     	;# 
   412     000A                     	;# 
   413     000B                     	;# 
   414     000C                     	;# 
   415     000D                     	;# 
   416     0011                     	;# 
   417     0012                     	;# 
   418     0013                     	;# 
   419     0014                     	;# 
   420     0015                     	;# 
   421     0016                     	;# 
   422     0016                     	;# 
   423     0017                     	;# 
   424     0018                     	;# 
   425     0019                     	;# 
   426     001A                     	;# 
   427     001B                     	;# 
   428     001C                     	;# 
   429     001E                     	;# 
   430     001F                     	;# 
   431     008C                     	;# 
   432     008D                     	;# 
   433     0091                     	;# 
   434     0092                     	;# 
   435     0093                     	;# 
   436     0094                     	;# 
   437     0095                     	;# 
   438     0096                     	;# 
   439     0097                     	;# 
   440     0098                     	;# 
   441     0099                     	;# 
   442     009A                     	;# 
   443     009B                     	;# 
   444     009B                     	;# 
   445     009C                     	;# 
   446     009D                     	;# 
   447     009E                     	;# 
   448     010C                     	;# 
   449     010D                     	;# 
   450     0111                     	;# 
   451     0112                     	;# 
   452     0113                     	;# 
   453     0114                     	;# 
   454     0115                     	;# 
   455     0116                     	;# 
   456     0117                     	;# 
   457     0118                     	;# 
   458     0119                     	;# 
   459     011A                     	;# 
   460     011B                     	;# 
   461     011D                     	;# 
   462     011E                     	;# 
   463     018C                     	;# 
   464     018D                     	;# 
   465     0191                     	;# 
   466     0191                     	;# 
   467     0192                     	;# 
   468     0193                     	;# 
   469     0193                     	;# 
   470     0193                     	;# 
   471     0194                     	;# 
   472     0195                     	;# 
   473     0196                     	;# 
   474     0199                     	;# 
   475     019A                     	;# 
   476     019B                     	;# 
   477     019B                     	;# 
   478     019B                     	;# 
   479     019B                     	;# 
   480     019C                     	;# 
   481     019C                     	;# 
   482     019D                     	;# 
   483     019E                     	;# 
   484     019F                     	;# 
   485     020C                     	;# 
   486     020D                     	;# 
   487     0211                     	;# 
   488     0211                     	;# 
   489     0212                     	;# 
   490     0212                     	;# 
   491     0213                     	;# 
   492     0213                     	;# 
   493     0214                     	;# 
   494     0214                     	;# 
   495     0215                     	;# 
   496     0215                     	;# 
   497     0215                     	;# 
   498     0216                     	;# 
   499     0216                     	;# 
   500     0217                     	;# 
   501     0217                     	;# 
   502     0219                     	;# 
   503     021A                     	;# 
   504     021B                     	;# 
   505     021C                     	;# 
   506     021D                     	;# 
   507     021E                     	;# 
   508     021F                     	;# 
   509     0291                     	;# 
   510     0291                     	;# 
   511     0292                     	;# 
   512     0293                     	;# 
   513     0294                     	;# 
   514     0295                     	;# 
   515     0295                     	;# 
   516     0296                     	;# 
   517     0298                     	;# 
   518     0298                     	;# 
   519     0299                     	;# 
   520     029A                     	;# 
   521     029B                     	;# 
   522     029C                     	;# 
   523     029C                     	;# 
   524     029D                     	;# 
   525     029E                     	;# 
   526     029E                     	;# 
   527     0311                     	;# 
   528     0311                     	;# 
   529     0312                     	;# 
   530     0313                     	;# 
   531     0318                     	;# 
   532     0318                     	;# 
   533     0319                     	;# 
   534     031A                     	;# 
   535     0394                     	;# 
   536     0395                     	;# 
   537     0396                     	;# 
   538     039A                     	;# 
   539     039C                     	;# 
   540     039D                     	;# 
   541     039E                     	;# 
   542     039F                     	;# 
   543     0415                     	;# 
   544     0416                     	;# 
   545     0417                     	;# 
   546     041C                     	;# 
   547     041D                     	;# 
   548     041E                     	;# 
   549     0FE4                     	;# 
   550     0FE5                     	;# 
   551     0FE6                     	;# 
   552     0FE7                     	;# 
   553     0FE8                     	;# 
   554     0FE9                     	;# 
   555     0FEA                     	;# 
   556     0FEB                     	;# 
   557     0FED                     	;# 
   558     0FEE                     	;# 
   559     0FEF                     	;# 
   560     0000                     	;# 
   561     0001                     	;# 
   562     0002                     	;# 
   563     0003                     	;# 
   564     0004                     	;# 
   565     0005                     	;# 
   566     0006                     	;# 
   567     0007                     	;# 
   568     0008                     	;# 
   569     0009                     	;# 
   570     000A                     	;# 
   571     000B                     	;# 
   572     000C                     	;# 
   573     000D                     	;# 
   574     0011                     	;# 
   575     0012                     	;# 
   576     0013                     	;# 
   577     0014                     	;# 
   578     0015                     	;# 
   579     0016                     	;# 
   580     0016                     	;# 
   581     0017                     	;# 
   582     0018                     	;# 
   583     0019                     	;# 
   584     001A                     	;# 
   585     001B                     	;# 
   586     001C                     	;# 
   587     001E                     	;# 
   588     001F                     	;# 
   589     008C                     	;# 
   590     008D                     	;# 
   591     0091                     	;# 
   592     0092                     	;# 
   593     0093                     	;# 
   594     0094                     	;# 
   595     0095                     	;# 
   596     0096                     	;# 
   597     0097                     	;# 
   598     0098                     	;# 
   599     0099                     	;# 
   600     009A                     	;# 
   601     009B                     	;# 
   602     009B                     	;# 
   603     009C                     	;# 
   604     009D                     	;# 
   605     009E                     	;# 
   606     010C                     	;# 
   607     010D                     	;# 
   608     0111                     	;# 
   609     0112                     	;# 
   610     0113                     	;# 
   611     0114                     	;# 
   612     0115                     	;# 
   613     0116                     	;# 
   614     0117                     	;# 
   615     0118                     	;# 
   616     0119                     	;# 
   617     011A                     	;# 
   618     011B                     	;# 
   619     011D                     	;# 
   620     011E                     	;# 
   621     018C                     	;# 
   622     018D                     	;# 
   623     0191                     	;# 
   624     0191                     	;# 
   625     0192                     	;# 
   626     0193                     	;# 
   627     0193                     	;# 
   628     0193                     	;# 
   629     0194                     	;# 
   630     0195                     	;# 
   631     0196                     	;# 
   632     0199                     	;# 
   633     019A                     	;# 
   634     019B                     	;# 
   635     019B                     	;# 
   636     019B                     	;# 
   637     019B                     	;# 
   638     019C                     	;# 
   639     019C                     	;# 
   640     019D                     	;# 
   641     019E                     	;# 
   642     019F                     	;# 
   643     020C                     	;# 
   644     020D                     	;# 
   645     0211                     	;# 
   646     0211                     	;# 
   647     0212                     	;# 
   648     0212                     	;# 
   649     0213                     	;# 
   650     0213                     	;# 
   651     0214                     	;# 
   652     0214                     	;# 
   653     0215                     	;# 
   654     0215                     	;# 
   655     0215                     	;# 
   656     0216                     	;# 
   657     0216                     	;# 
   658     0217                     	;# 
   659     0217                     	;# 
   660     0219                     	;# 
   661     021A                     	;# 
   662     021B                     	;# 
   663     021C                     	;# 
   664     021D                     	;# 
   665     021E                     	;# 
   666     021F                     	;# 
   667     0291                     	;# 
   668     0291                     	;# 
   669     0292                     	;# 
   670     0293                     	;# 
   671     0294                     	;# 
   672     0295                     	;# 
   673     0295                     	;# 
   674     0296                     	;# 
   675     0298                     	;# 
   676     0298                     	;# 
   677     0299                     	;# 
   678     029A                     	;# 
   679     029B                     	;# 
   680     029C                     	;# 
   681     029C                     	;# 
   682     029D                     	;# 
   683     029E                     	;# 
   684     029E                     	;# 
   685     0311                     	;# 
   686     0311                     	;# 
   687     0312                     	;# 
   688     0313                     	;# 
   689     0318                     	;# 
   690     0318                     	;# 
   691     0319                     	;# 
   692     031A                     	;# 
   693     0394                     	;# 
   694     0395                     	;# 
   695     0396                     	;# 
   696     039A                     	;# 
   697     039C                     	;# 
   698     039D                     	;# 
   699     039E                     	;# 
   700     039F                     	;# 
   701     0415                     	;# 
   702     0416                     	;# 
   703     0417                     	;# 
   704     041C                     	;# 
   705     041D                     	;# 
   706     041E                     	;# 
   707     0FE4                     	;# 
   708     0FE5                     	;# 
   709     0FE6                     	;# 
   710     0FE7                     	;# 
   711     0FE8                     	;# 
   712     0FE9                     	;# 
   713     0FEA                     	;# 
   714     0FEB                     	;# 
   715     0FED                     	;# 
   716     0FEE                     	;# 
   717     0FEF                     	;# 
   718     0000                     	;# 
   719     0001                     	;# 
   720     0002                     	;# 
   721     0003                     	;# 
   722     0004                     	;# 
   723     0005                     	;# 
   724     0006                     	;# 
   725     0007                     	;# 
   726     0008                     	;# 
   727     0009                     	;# 
   728     000A                     	;# 
   729     000B                     	;# 
   730     000C                     	;# 
   731     000D                     	;# 
   732     0011                     	;# 
   733     0012                     	;# 
   734     0013                     	;# 
   735     0014                     	;# 
   736     0015                     	;# 
   737     0016                     	;# 
   738     0016                     	;# 
   739     0017                     	;# 
   740     0018                     	;# 
   741     0019                     	;# 
   742     001A                     	;# 
   743     001B                     	;# 
   744     001C                     	;# 
   745     001E                     	;# 
   746     001F                     	;# 
   747     008C                     	;# 
   748     008D                     	;# 
   749     0091                     	;# 
   750     0092                     	;# 
   751     0093                     	;# 
   752     0094                     	;# 
   753     0095                     	;# 
   754     0096                     	;# 
   755     0097                     	;# 
   756     0098                     	;# 
   757     0099                     	;# 
   758     009A                     	;# 
   759     009B                     	;# 
   760     009B                     	;# 
   761     009C                     	;# 
   762     009D                     	;# 
   763     009E                     	;# 
   764     010C                     	;# 
   765     010D                     	;# 
   766     0111                     	;# 
   767     0112                     	;# 
   768     0113                     	;# 
   769     0114                     	;# 
   770     0115                     	;# 
   771     0116                     	;# 
   772     0117                     	;# 
   773     0118                     	;# 
   774     0119                     	;# 
   775     011A                     	;# 
   776     011B                     	;# 
   777     011D                     	;# 
   778     011E                     	;# 
   779     018C                     	;# 
   780     018D                     	;# 
   781     0191                     	;# 
   782     0191                     	;# 
   783     0192                     	;# 
   784     0193                     	;# 
   785     0193                     	;# 
   786     0193                     	;# 
   787     0194                     	;# 
   788     0195                     	;# 
   789     0196                     	;# 
   790     0199                     	;# 
   791     019A                     	;# 
   792     019B                     	;# 
   793     019B                     	;# 
   794     019B                     	;# 
   795     019B                     	;# 
   796     019C                     	;# 
   797     019C                     	;# 
   798     019D                     	;# 
   799     019E                     	;# 
   800     019F                     	;# 
   801     020C                     	;# 
   802     020D                     	;# 
   803     0211                     	;# 
   804     0211                     	;# 
   805     0212                     	;# 
   806     0212                     	;# 
   807     0213                     	;# 
   808     0213                     	;# 
   809     0214                     	;# 
   810     0214                     	;# 
   811     0215                     	;# 
   812     0215                     	;# 
   813     0215                     	;# 
   814     0216                     	;# 
   815     0216                     	;# 
   816     0217                     	;# 
   817     0217                     	;# 
   818     0219                     	;# 
   819     021A                     	;# 
   820     021B                     	;# 
   821     021C                     	;# 
   822     021D                     	;# 
   823     021E                     	;# 
   824     021F                     	;# 
   825     0291                     	;# 
   826     0291                     	;# 
   827     0292                     	;# 
   828     0293                     	;# 
   829     0294                     	;# 
   830     0295                     	;# 
   831     0295                     	;# 
   832     0296                     	;# 
   833     0298                     	;# 
   834     0298                     	;# 
   835     0299                     	;# 
   836     029A                     	;# 
   837     029B                     	;# 
   838     029C                     	;# 
   839     029C                     	;# 
   840     029D                     	;# 
   841     029E                     	;# 
   842     029E                     	;# 
   843     0311                     	;# 
   844     0311                     	;# 
   845     0312                     	;# 
   846     0313                     	;# 
   847     0318                     	;# 
   848     0318                     	;# 
   849     0319                     	;# 
   850     031A                     	;# 
   851     0394                     	;# 
   852     0395                     	;# 
   853     0396                     	;# 
   854     039A                     	;# 
   855     039C                     	;# 
   856     039D                     	;# 
   857     039E                     	;# 
   858     039F                     	;# 
   859     0415                     	;# 
   860     0416                     	;# 
   861     0417                     	;# 
   862     041C                     	;# 
   863     041D                     	;# 
   864     041E                     	;# 
   865     0FE4                     	;# 
   866     0FE5                     	;# 
   867     0FE6                     	;# 
   868     0FE7                     	;# 
   869     0FE8                     	;# 
   870     0FE9                     	;# 
   871     0FEA                     	;# 
   872     0FEB                     	;# 
   873     0FED                     	;# 
   874     0FEE                     	;# 
   875     0FEF                     	;# 
   876     0000                     	;# 
   877     0001                     	;# 
   878     0002                     	;# 
   879     0003                     	;# 
   880     0004                     	;# 
   881     0005                     	;# 
   882     0006                     	;# 
   883     0007                     	;# 
   884     0008                     	;# 
   885     0009                     	;# 
   886     000A                     	;# 
   887     000B                     	;# 
   888     000C                     	;# 
   889     000D                     	;# 
   890     0011                     	;# 
   891     0012                     	;# 
   892     0013                     	;# 
   893     0014                     	;# 
   894     0015                     	;# 
   895     0016                     	;# 
   896     0016                     	;# 
   897     0017                     	;# 
   898     0018                     	;# 
   899     0019                     	;# 
   900     001A                     	;# 
   901     001B                     	;# 
   902     001C                     	;# 
   903     001E                     	;# 
   904     001F                     	;# 
   905     008C                     	;# 
   906     008D                     	;# 
   907     0091                     	;# 
   908     0092                     	;# 
   909     0093                     	;# 
   910     0094                     	;# 
   911     0095                     	;# 
   912     0096                     	;# 
   913     0097                     	;# 
   914     0098                     	;# 
   915     0099                     	;# 
   916     009A                     	;# 
   917     009B                     	;# 
   918     009B                     	;# 
   919     009C                     	;# 
   920     009D                     	;# 
   921     009E                     	;# 
   922     010C                     	;# 
   923     010D                     	;# 
   924     0111                     	;# 
   925     0112                     	;# 
   926     0113                     	;# 
   927     0114                     	;# 
   928     0115                     	;# 
   929     0116                     	;# 
   930     0117                     	;# 
   931     0118                     	;# 
   932     0119                     	;# 
   933     011A                     	;# 
   934     011B                     	;# 
   935     011D                     	;# 
   936     011E                     	;# 
   937     018C                     	;# 
   938     018D                     	;# 
   939     0191                     	;# 
   940     0191                     	;# 
   941     0192                     	;# 
   942     0193                     	;# 
   943     0193                     	;# 
   944     0193                     	;# 
   945     0194                     	;# 
   946     0195                     	;# 
   947     0196                     	;# 
   948     0199                     	;# 
   949     019A                     	;# 
   950     019B                     	;# 
   951     019B                     	;# 
   952     019B                     	;# 
   953     019B                     	;# 
   954     019C                     	;# 
   955     019C                     	;# 
   956     019D                     	;# 
   957     019E                     	;# 
   958     019F                     	;# 
   959     020C                     	;# 
   960     020D                     	;# 
   961     0211                     	;# 
   962     0211                     	;# 
   963     0212                     	;# 
   964     0212                     	;# 
   965     0213                     	;# 
   966     0213                     	;# 
   967     0214                     	;# 
   968     0214                     	;# 
   969     0215                     	;# 
   970     0215                     	;# 
   971     0215                     	;# 
   972     0216                     	;# 
   973     0216                     	;# 
   974     0217                     	;# 
   975     0217                     	;# 
   976     0219                     	;# 
   977     021A                     	;# 
   978     021B                     	;# 
   979     021C                     	;# 
   980     021D                     	;# 
   981     021E                     	;# 
   982     021F                     	;# 
   983     0291                     	;# 
   984     0291                     	;# 
   985     0292                     	;# 
   986     0293                     	;# 
   987     0294                     	;# 
   988     0295                     	;# 
   989     0295                     	;# 
   990     0296                     	;# 
   991     0298                     	;# 
   992     0298                     	;# 
   993     0299                     	;# 
   994     029A                     	;# 
   995     029B                     	;# 
   996     029C                     	;# 
   997     029C                     	;# 
   998     029D                     	;# 
   999     029E                     	;# 
  1000     029E                     	;# 
  1001     0311                     	;# 
  1002     0311                     	;# 
  1003     0312                     	;# 
  1004     0313                     	;# 
  1005     0318                     	;# 
  1006     0318                     	;# 
  1007     0319                     	;# 
  1008     031A                     	;# 
  1009     0394                     	;# 
  1010     0395                     	;# 
  1011     0396                     	;# 
  1012     039A                     	;# 
  1013     039C                     	;# 
  1014     039D                     	;# 
  1015     039E                     	;# 
  1016     039F                     	;# 
  1017     0415                     	;# 
  1018     0416                     	;# 
  1019     0417                     	;# 
  1020     041C                     	;# 
  1021     041D                     	;# 
  1022     041E                     	;# 
  1023     0FE4                     	;# 
  1024     0FE5                     	;# 
  1025     0FE6                     	;# 
  1026     0FE7                     	;# 
  1027     0FE8                     	;# 
  1028     0FE9                     	;# 
  1029     0FEA                     	;# 
  1030     0FEB                     	;# 
  1031     0FED                     	;# 
  1032     0FEE                     	;# 
  1033     0FEF                     	;# 
  1034     0000                     	;# 
  1035     0001                     	;# 
  1036     0002                     	;# 
  1037     0003                     	;# 
  1038     0004                     	;# 
  1039     0005                     	;# 
  1040     0006                     	;# 
  1041     0007                     	;# 
  1042     0008                     	;# 
  1043     0009                     	;# 
  1044     000A                     	;# 
  1045     000B                     	;# 
  1046     000C                     	;# 
  1047     000D                     	;# 
  1048     0011                     	;# 
  1049     0012                     	;# 
  1050     0013                     	;# 
  1051     0014                     	;# 
  1052     0015                     	;# 
  1053     0016                     	;# 
  1054     0016                     	;# 
  1055     0017                     	;# 
  1056     0018                     	;# 
  1057     0019                     	;# 
  1058     001A                     	;# 
  1059     001B                     	;# 
  1060     001C                     	;# 
  1061     001E                     	;# 
  1062     001F                     	;# 
  1063     008C                     	;# 
  1064     008D                     	;# 
  1065     0091                     	;# 
  1066     0092                     	;# 
  1067     0093                     	;# 
  1068     0094                     	;# 
  1069     0095                     	;# 
  1070     0096                     	;# 
  1071     0097                     	;# 
  1072     0098                     	;# 
  1073     0099                     	;# 
  1074     009A                     	;# 
  1075     009B                     	;# 
  1076     009B                     	;# 
  1077     009C                     	;# 
  1078     009D                     	;# 
  1079     009E                     	;# 
  1080     010C                     	;# 
  1081     010D                     	;# 
  1082     0111                     	;# 
  1083     0112                     	;# 
  1084     0113                     	;# 
  1085     0114                     	;# 
  1086     0115                     	;# 
  1087     0116                     	;# 
  1088     0117                     	;# 
  1089     0118                     	;# 
  1090     0119                     	;# 
  1091     011A                     	;# 
  1092     011B                     	;# 
  1093     011D                     	;# 
  1094     011E                     	;# 
  1095     018C                     	;# 
  1096     018D                     	;# 
  1097     0191                     	;# 
  1098     0191                     	;# 
  1099     0192                     	;# 
  1100     0193                     	;# 
  1101     0193                     	;# 
  1102     0193                     	;# 
  1103     0194                     	;# 
  1104     0195                     	;# 
  1105     0196                     	;# 
  1106     0199                     	;# 
  1107     019A                     	;# 
  1108     019B                     	;# 
  1109     019B                     	;# 
  1110     019B                     	;# 
  1111     019B                     	;# 
  1112     019C                     	;# 
  1113     019C                     	;# 
  1114     019D                     	;# 
  1115     019E                     	;# 
  1116     019F                     	;# 
  1117     020C                     	;# 
  1118     020D                     	;# 
  1119     0211                     	;# 
  1120     0211                     	;# 
  1121     0212                     	;# 
  1122     0212                     	;# 
  1123     0213                     	;# 
  1124     0213                     	;# 
  1125     0214                     	;# 
  1126     0214                     	;# 
  1127     0215                     	;# 
  1128     0215                     	;# 
  1129     0215                     	;# 
  1130     0216                     	;# 
  1131     0216                     	;# 
  1132     0217                     	;# 
  1133     0217                     	;# 
  1134     0219                     	;# 
  1135     021A                     	;# 
  1136     021B                     	;# 
  1137     021C                     	;# 
  1138     021D                     	;# 
  1139     021E                     	;# 
  1140     021F                     	;# 
  1141     0291                     	;# 
  1142     0291                     	;# 
  1143     0292                     	;# 
  1144     0293                     	;# 
  1145     0294                     	;# 
  1146     0295                     	;# 
  1147     0295                     	;# 
  1148     0296                     	;# 
  1149     0298                     	;# 
  1150     0298                     	;# 
  1151     0299                     	;# 
  1152     029A                     	;# 
  1153     029B                     	;# 
  1154     029C                     	;# 
  1155     029C                     	;# 
  1156     029D                     	;# 
  1157     029E                     	;# 
  1158     029E                     	;# 
  1159     0311                     	;# 
  1160     0311                     	;# 
  1161     0312                     	;# 
  1162     0313                     	;# 
  1163     0318                     	;# 
  1164     0318                     	;# 
  1165     0319                     	;# 
  1166     031A                     	;# 
  1167     0394                     	;# 
  1168     0395                     	;# 
  1169     0396                     	;# 
  1170     039A                     	;# 
  1171     039C                     	;# 
  1172     039D                     	;# 
  1173     039E                     	;# 
  1174     039F                     	;# 
  1175     0415                     	;# 
  1176     0416                     	;# 
  1177     0417                     	;# 
  1178     041C                     	;# 
  1179     041D                     	;# 
  1180     041E                     	;# 
  1181     0FE4                     	;# 
  1182     0FE5                     	;# 
  1183     0FE6                     	;# 
  1184     0FE7                     	;# 
  1185     0FE8                     	;# 
  1186     0FE9                     	;# 
  1187     0FEA                     	;# 
  1188     0FEB                     	;# 
  1189     0FED                     	;# 
  1190     0FEE                     	;# 
  1191     0FEF                     	;# 
  1192     0000                     	;# 
  1193     0001                     	;# 
  1194     0002                     	;# 
  1195     0003                     	;# 
  1196     0004                     	;# 
  1197     0005                     	;# 
  1198     0006                     	;# 
  1199     0007                     	;# 
  1200     0008                     	;# 
  1201     0009                     	;# 
  1202     000A                     	;# 
  1203     000B                     	;# 
  1204     000C                     	;# 
  1205     000D                     	;# 
  1206     0011                     	;# 
  1207     0012                     	;# 
  1208     0013                     	;# 
  1209     0014                     	;# 
  1210     0015                     	;# 
  1211     0016                     	;# 
  1212     0016                     	;# 
  1213     0017                     	;# 
  1214     0018                     	;# 
  1215     0019                     	;# 
  1216     001A                     	;# 
  1217     001B                     	;# 
  1218     001C                     	;# 
  1219     001E                     	;# 
  1220     001F                     	;# 
  1221     008C                     	;# 
  1222     008D                     	;# 
  1223     0091                     	;# 
  1224     0092                     	;# 
  1225     0093                     	;# 
  1226     0094                     	;# 
  1227     0095                     	;# 
  1228     0096                     	;# 
  1229     0097                     	;# 
  1230     0098                     	;# 
  1231     0099                     	;# 
  1232     009A                     	;# 
  1233     009B                     	;# 
  1234     009B                     	;# 
  1235     009C                     	;# 
  1236     009D                     	;# 
  1237     009E                     	;# 
  1238     010C                     	;# 
  1239     010D                     	;# 
  1240     0111                     	;# 
  1241     0112                     	;# 
  1242     0113                     	;# 
  1243     0114                     	;# 
  1244     0115                     	;# 
  1245     0116                     	;# 
  1246     0117                     	;# 
  1247     0118                     	;# 
  1248     0119                     	;# 
  1249     011A                     	;# 
  1250     011B                     	;# 
  1251     011D                     	;# 
  1252     011E                     	;# 
  1253     018C                     	;# 
  1254     018D                     	;# 
  1255     0191                     	;# 
  1256     0191                     	;# 
  1257     0192                     	;# 
  1258     0193                     	;# 
  1259     0193                     	;# 
  1260     0193                     	;# 
  1261     0194                     	;# 
  1262     0195                     	;# 
  1263     0196                     	;# 
  1264     0199                     	;# 
  1265     019A                     	;# 
  1266     019B                     	;# 
  1267     019B                     	;# 
  1268     019B                     	;# 
  1269     019B                     	;# 
  1270     019C                     	;# 
  1271     019C                     	;# 
  1272     019D                     	;# 
  1273     019E                     	;# 
  1274     019F                     	;# 
  1275     020C                     	;# 
  1276     020D                     	;# 
  1277     0211                     	;# 
  1278     0211                     	;# 
  1279     0212                     	;# 
  1280     0212                     	;# 
  1281     0213                     	;# 
  1282     0213                     	;# 
  1283     0214                     	;# 
  1284     0214                     	;# 
  1285     0215                     	;# 
  1286     0215                     	;# 
  1287     0215                     	;# 
  1288     0216                     	;# 
  1289     0216                     	;# 
  1290     0217                     	;# 
  1291     0217                     	;# 
  1292     0219                     	;# 
  1293     021A                     	;# 
  1294     021B                     	;# 
  1295     021C                     	;# 
  1296     021D                     	;# 
  1297     021E                     	;# 
  1298     021F                     	;# 
  1299     0291                     	;# 
  1300     0291                     	;# 
  1301     0292                     	;# 
  1302     0293                     	;# 
  1303     0294                     	;# 
  1304     0295                     	;# 
  1305     0295                     	;# 
  1306     0296                     	;# 
  1307     0298                     	;# 
  1308     0298                     	;# 
  1309     0299                     	;# 
  1310     029A                     	;# 
  1311     029B                     	;# 
  1312     029C                     	;# 
  1313     029C                     	;# 
  1314     029D                     	;# 
  1315     029E                     	;# 
  1316     029E                     	;# 
  1317     0311                     	;# 
  1318     0311                     	;# 
  1319     0312                     	;# 
  1320     0313                     	;# 
  1321     0318                     	;# 
  1322     0318                     	;# 
  1323     0319                     	;# 
  1324     031A                     	;# 
  1325     0394                     	;# 
  1326     0395                     	;# 
  1327     0396                     	;# 
  1328     039A                     	;# 
  1329     039C                     	;# 
  1330     039D                     	;# 
  1331     039E                     	;# 
  1332     039F                     	;# 
  1333     0415                     	;# 
  1334     0416                     	;# 
  1335     0417                     	;# 
  1336     041C                     	;# 
  1337     041D                     	;# 
  1338     041E                     	;# 
  1339     0FE4                     	;# 
  1340     0FE5                     	;# 
  1341     0FE6                     	;# 
  1342     0FE7                     	;# 
  1343     0FE8                     	;# 
  1344     0FE9                     	;# 
  1345     0FEA                     	;# 
  1346     0FEB                     	;# 
  1347     0FED                     	;# 
  1348     0FEE                     	;# 
  1349     0FEF                     	;# 
  1350     0000                     	;# 
  1351     0001                     	;# 
  1352     0002                     	;# 
  1353     0003                     	;# 
  1354     0004                     	;# 
  1355     0005                     	;# 
  1356     0006                     	;# 
  1357     0007                     	;# 
  1358     0008                     	;# 
  1359     0009                     	;# 
  1360     000A                     	;# 
  1361     000B                     	;# 
  1362     000C                     	;# 
  1363     000D                     	;# 
  1364     0011                     	;# 
  1365     0012                     	;# 
  1366     0013                     	;# 
  1367     0014                     	;# 
  1368     0015                     	;# 
  1369     0016                     	;# 
  1370     0016                     	;# 
  1371     0017                     	;# 
  1372     0018                     	;# 
  1373     0019                     	;# 
  1374     001A                     	;# 
  1375     001B                     	;# 
  1376     001C                     	;# 
  1377     001E                     	;# 
  1378     001F                     	;# 
  1379     008C                     	;# 
  1380     008D                     	;# 
  1381     0091                     	;# 
  1382     0092                     	;# 
  1383     0093                     	;# 
  1384     0094                     	;# 
  1385     0095                     	;# 
  1386     0096                     	;# 
  1387     0097                     	;# 
  1388     0098                     	;# 
  1389     0099                     	;# 
  1390     009A                     	;# 
  1391     009B                     	;# 
  1392     009B                     	;# 
  1393     009C                     	;# 
  1394     009D                     	;# 
  1395     009E                     	;# 
  1396     010C                     	;# 
  1397     010D                     	;# 
  1398     0111                     	;# 
  1399     0112                     	;# 
  1400     0113                     	;# 
  1401     0114                     	;# 
  1402     0115                     	;# 
  1403     0116                     	;# 
  1404     0117                     	;# 
  1405     0118                     	;# 
  1406     0119                     	;# 
  1407     011A                     	;# 
  1408     011B                     	;# 
  1409     011D                     	;# 
  1410     011E                     	;# 
  1411     018C                     	;# 
  1412     018D                     	;# 
  1413     0191                     	;# 
  1414     0191                     	;# 
  1415     0192                     	;# 
  1416     0193                     	;# 
  1417     0193                     	;# 
  1418     0193                     	;# 
  1419     0194                     	;# 
  1420     0195                     	;# 
  1421     0196                     	;# 
  1422     0199                     	;# 
  1423     019A                     	;# 
  1424     019B                     	;# 
  1425     019B                     	;# 
  1426     019B                     	;# 
  1427     019B                     	;# 
  1428     019C                     	;# 
  1429     019C                     	;# 
  1430     019D                     	;# 
  1431     019E                     	;# 
  1432     019F                     	;# 
  1433     020C                     	;# 
  1434     020D                     	;# 
  1435     0211                     	;# 
  1436     0211                     	;# 
  1437     0212                     	;# 
  1438     0212                     	;# 
  1439     0213                     	;# 
  1440     0213                     	;# 
  1441     0214                     	;# 
  1442     0214                     	;# 
  1443     0215                     	;# 
  1444     0215                     	;# 
  1445     0215                     	;# 
  1446     0216                     	;# 
  1447     0216                     	;# 
  1448     0217                     	;# 
  1449     0217                     	;# 
  1450     0219                     	;# 
  1451     021A                     	;# 
  1452     021B                     	;# 
  1453     021C                     	;# 
  1454     021D                     	;# 
  1455     021E                     	;# 
  1456     021F                     	;# 
  1457     0291                     	;# 
  1458     0291                     	;# 
  1459     0292                     	;# 
  1460     0293                     	;# 
  1461     0294                     	;# 
  1462     0295                     	;# 
  1463     0295                     	;# 
  1464     0296                     	;# 
  1465     0298                     	;# 
  1466     0298                     	;# 
  1467     0299                     	;# 
  1468     029A                     	;# 
  1469     029B                     	;# 
  1470     029C                     	;# 
  1471     029C                     	;# 
  1472     029D                     	;# 
  1473     029E                     	;# 
  1474     029E                     	;# 
  1475     0311                     	;# 
  1476     0311                     	;# 
  1477     0312                     	;# 
  1478     0313                     	;# 
  1479     0318                     	;# 
  1480     0318                     	;# 
  1481     0319                     	;# 
  1482     031A                     	;# 
  1483     0394                     	;# 
  1484     0395                     	;# 
  1485     0396                     	;# 
  1486     039A                     	;# 
  1487     039C                     	;# 
  1488     039D                     	;# 
  1489     039E                     	;# 
  1490     039F                     	;# 
  1491     0415                     	;# 
  1492     0416                     	;# 
  1493     0417                     	;# 
  1494     041C                     	;# 
  1495     041D                     	;# 
  1496     041E                     	;# 
  1497     0FE4                     	;# 
  1498     0FE5                     	;# 
  1499     0FE6                     	;# 
  1500     0FE7                     	;# 
  1501     0FE8                     	;# 
  1502     0FE9                     	;# 
  1503     0FEA                     	;# 
  1504     0FEB                     	;# 
  1505     0FED                     	;# 
  1506     0FEE                     	;# 
  1507     0FEF                     	;# 
  1508     0000                     	;# 
  1509     0001                     	;# 
  1510     0002                     	;# 
  1511     0003                     	;# 
  1512     0004                     	;# 
  1513     0005                     	;# 
  1514     0006                     	;# 
  1515     0007                     	;# 
  1516     0008                     	;# 
  1517     0009                     	;# 
  1518     000A                     	;# 
  1519     000B                     	;# 
  1520     000C                     	;# 
  1521     000D                     	;# 
  1522     0011                     	;# 
  1523     0012                     	;# 
  1524     0013                     	;# 
  1525     0014                     	;# 
  1526     0015                     	;# 
  1527     0016                     	;# 
  1528     0016                     	;# 
  1529     0017                     	;# 
  1530     0018                     	;# 
  1531     0019                     	;# 
  1532     001A                     	;# 
  1533     001B                     	;# 
  1534     001C                     	;# 
  1535     001E                     	;# 
  1536     001F                     	;# 
  1537     008C                     	;# 
  1538     008D                     	;# 
  1539     0091                     	;# 
  1540     0092                     	;# 
  1541     0093                     	;# 
  1542     0094                     	;# 
  1543     0095                     	;# 
  1544     0096                     	;# 
  1545     0097                     	;# 
  1546     0098                     	;# 
  1547     0099                     	;# 
  1548     009A                     	;# 
  1549     009B                     	;# 
  1550     009B                     	;# 
  1551     009C                     	;# 
  1552     009D                     	;# 
  1553     009E                     	;# 
  1554     010C                     	;# 
  1555     010D                     	;# 
  1556     0111                     	;# 
  1557     0112                     	;# 
  1558     0113                     	;# 
  1559     0114                     	;# 
  1560     0115                     	;# 
  1561     0116                     	;# 
  1562     0117                     	;# 
  1563     0118                     	;# 
  1564     0119                     	;# 
  1565     011A                     	;# 
  1566     011B                     	;# 
  1567     011D                     	;# 
  1568     011E                     	;# 
  1569     018C                     	;# 
  1570     018D                     	;# 
  1571     0191                     	;# 
  1572     0191                     	;# 
  1573     0192                     	;# 
  1574     0193                     	;# 
  1575     0193                     	;# 
  1576     0193                     	;# 
  1577     0194                     	;# 
  1578     0195                     	;# 
  1579     0196                     	;# 
  1580     0199                     	;# 
  1581     019A                     	;# 
  1582     019B                     	;# 
  1583     019B                     	;# 
  1584     019B                     	;# 
  1585     019B                     	;# 
  1586     019C                     	;# 
  1587     019C                     	;# 
  1588     019D                     	;# 
  1589     019E                     	;# 
  1590     019F                     	;# 
  1591     020C                     	;# 
  1592     020D                     	;# 
  1593     0211                     	;# 
  1594     0211                     	;# 
  1595     0212                     	;# 
  1596     0212                     	;# 
  1597     0213                     	;# 
  1598     0213                     	;# 
  1599     0214                     	;# 
  1600     0214                     	;# 
  1601     0215                     	;# 
  1602     0215                     	;# 
  1603     0215                     	;# 
  1604     0216                     	;# 
  1605     0216                     	;# 
  1606     0217                     	;# 
  1607     0217                     	;# 
  1608     0219                     	;# 
  1609     021A                     	;# 
  1610     021B                     	;# 
  1611     021C                     	;# 
  1612     021D                     	;# 
  1613     021E                     	;# 
  1614     021F                     	;# 
  1615     0291                     	;# 
  1616     0291                     	;# 
  1617     0292                     	;# 
  1618     0293                     	;# 
  1619     0294                     	;# 
  1620     0295                     	;# 
  1621     0295                     	;# 
  1622     0296                     	;# 
  1623     0298                     	;# 
  1624     0298                     	;# 
  1625     0299                     	;# 
  1626     029A                     	;# 
  1627     029B                     	;# 
  1628     029C                     	;# 
  1629     029C                     	;# 
  1630     029D                     	;# 
  1631     029E                     	;# 
  1632     029E                     	;# 
  1633     0311                     	;# 
  1634     0311                     	;# 
  1635     0312                     	;# 
  1636     0313                     	;# 
  1637     0318                     	;# 
  1638     0318                     	;# 
  1639     0319                     	;# 
  1640     031A                     	;# 
  1641     0394                     	;# 
  1642     0395                     	;# 
  1643     0396                     	;# 
  1644     039A                     	;# 
  1645     039C                     	;# 
  1646     039D                     	;# 
  1647     039E                     	;# 
  1648     039F                     	;# 
  1649     0415                     	;# 
  1650     0416                     	;# 
  1651     0417                     	;# 
  1652     041C                     	;# 
  1653     041D                     	;# 
  1654     041E                     	;# 
  1655     0FE4                     	;# 
  1656     0FE5                     	;# 
  1657     0FE6                     	;# 
  1658     0FE7                     	;# 
  1659     0FE8                     	;# 
  1660     0FE9                     	;# 
  1661     0FEA                     	;# 
  1662     0FEB                     	;# 
  1663     0FED                     	;# 
  1664     0FEE                     	;# 
  1665     0FEF                     	;# 
  1666     0000                     	;# 
  1667     0001                     	;# 
  1668     0002                     	;# 
  1669     0003                     	;# 
  1670     0004                     	;# 
  1671     0005                     	;# 
  1672     0006                     	;# 
  1673     0007                     	;# 
  1674     0008                     	;# 
  1675     0009                     	;# 
  1676     000A                     	;# 
  1677     000B                     	;# 
  1678     000C                     	;# 
  1679     000D                     	;# 
  1680     0011                     	;# 
  1681     0012                     	;# 
  1682     0013                     	;# 
  1683     0014                     	;# 
  1684     0015                     	;# 
  1685     0016                     	;# 
  1686     0016                     	;# 
  1687     0017                     	;# 
  1688     0018                     	;# 
  1689     0019                     	;# 
  1690     001A                     	;# 
  1691     001B                     	;# 
  1692     001C                     	;# 
  1693     001E                     	;# 
  1694     001F                     	;# 
  1695     008C                     	;# 
  1696     008D                     	;# 
  1697     0091                     	;# 
  1698     0092                     	;# 
  1699     0093                     	;# 
  1700     0094                     	;# 
  1701     0095                     	;# 
  1702     0096                     	;# 
  1703     0097                     	;# 
  1704     0098                     	;# 
  1705     0099                     	;# 
  1706     009A                     	;# 
  1707     009B                     	;# 
  1708     009B                     	;# 
  1709     009C                     	;# 
  1710     009D                     	;# 
  1711     009E                     	;# 
  1712     010C                     	;# 
  1713     010D                     	;# 
  1714     0111                     	;# 
  1715     0112                     	;# 
  1716     0113                     	;# 
  1717     0114                     	;# 
  1718     0115                     	;# 
  1719     0116                     	;# 
  1720     0117                     	;# 
  1721     0118                     	;# 
  1722     0119                     	;# 
  1723     011A                     	;# 
  1724     011B                     	;# 
  1725     011D                     	;# 
  1726     011E                     	;# 
  1727     018C                     	;# 
  1728     018D                     	;# 
  1729     0191                     	;# 
  1730     0191                     	;# 
  1731     0192                     	;# 
  1732     0193                     	;# 
  1733     0193                     	;# 
  1734     0193                     	;# 
  1735     0194                     	;# 
  1736     0195                     	;# 
  1737     0196                     	;# 
  1738     0199                     	;# 
  1739     019A                     	;# 
  1740     019B                     	;# 
  1741     019B                     	;# 
  1742     019B                     	;# 
  1743     019B                     	;# 
  1744     019C                     	;# 
  1745     019C                     	;# 
  1746     019D                     	;# 
  1747     019E                     	;# 
  1748     019F                     	;# 
  1749     020C                     	;# 
  1750     020D                     	;# 
  1751     0211                     	;# 
  1752     0211                     	;# 
  1753     0212                     	;# 
  1754     0212                     	;# 
  1755     0213                     	;# 
  1756     0213                     	;# 
  1757     0214                     	;# 
  1758     0214                     	;# 
  1759     0215                     	;# 
  1760     0215                     	;# 
  1761     0215                     	;# 
  1762     0216                     	;# 
  1763     0216                     	;# 
  1764     0217                     	;# 
  1765     0217                     	;# 
  1766     0219                     	;# 
  1767     021A                     	;# 
  1768     021B                     	;# 
  1769     021C                     	;# 
  1770     021D                     	;# 
  1771     021E                     	;# 
  1772     021F                     	;# 
  1773     0291                     	;# 
  1774     0291                     	;# 
  1775     0292                     	;# 
  1776     0293                     	;# 
  1777     0294                     	;# 
  1778     0295                     	;# 
  1779     0295                     	;# 
  1780     0296                     	;# 
  1781     0298                     	;# 
  1782     0298                     	;# 
  1783     0299                     	;# 
  1784     029A                     	;# 
  1785     029B                     	;# 
  1786     029C                     	;# 
  1787     029C                     	;# 
  1788     029D                     	;# 
  1789     029E                     	;# 
  1790     029E                     	;# 
  1791     0311                     	;# 
  1792     0311                     	;# 
  1793     0312                     	;# 
  1794     0313                     	;# 
  1795     0318                     	;# 
  1796     0318                     	;# 
  1797     0319                     	;# 
  1798     031A                     	;# 
  1799     0394                     	;# 
  1800     0395                     	;# 
  1801     0396                     	;# 
  1802     039A                     	;# 
  1803     039C                     	;# 
  1804     039D                     	;# 
  1805     039E                     	;# 
  1806     039F                     	;# 
  1807     0415                     	;# 
  1808     0416                     	;# 
  1809     0417                     	;# 
  1810     041C                     	;# 
  1811     041D                     	;# 
  1812     041E                     	;# 
  1813     0FE4                     	;# 
  1814     0FE5                     	;# 
  1815     0FE6                     	;# 
  1816     0FE7                     	;# 
  1817     0FE8                     	;# 
  1818     0FE9                     	;# 
  1819     0FEA                     	;# 
  1820     0FEB                     	;# 
  1821     0FED                     	;# 
  1822     0FEE                     	;# 
  1823     0FEF                     	;# 
  1824                           
  1825 ;; Function _EUSART_DefaultFramingErrorHandler is unused but had its address taken
  1826     0000                     
  1827 ;; Function _EUSART_DefaultOverrunErrorHandler is unused but had its address taken
  1828     0000                     
  1829 ;; Function _EUSART_DefaultErrorHandler is unused but had its address taken
  1830     0000                     
  1831                           	psect	nvBANK1
  1832     00CE                     __pnvBANK1:
  1833     00CE                     _EUSART_ErrorHandler:
  1834     00CE                     	ds	2
  1835     00D0                     _EUSART_OverrunErrorHandler:
  1836     00D0                     	ds	2
  1837     00D2                     _EUSART_FramingErrorHandler:
  1838     00D2                     	ds	2
  1839     001C                     _T2CONbits	set	28
  1840     001C                     _T2CON	set	28
  1841     001A                     _TMR2	set	26
  1842     001B                     _PR2	set	27
  1843     0011                     _PIR1bits	set	17
  1844     009D                     _ADCON0bits	set	157
  1845     009D                     _ADCON0	set	157
  1846     009C                     _ADRESH	set	156
  1847     009B                     _ADRESL	set	155
  1848     009E                     _ADCON1	set	158
  1849     0095                     _OPTION_REGbits	set	149
  1850     008D                     _TRISB	set	141
  1851     008C                     _TRISA	set	140
  1852     0097                     _WDTCON	set	151
  1853     0098                     _OSCTUNE	set	152
  1854     0099                     _OSCCON	set	153
  1855     010C                     _LATAbits	set	268
  1856     010D                     _LATBbits	set	269
  1857     0117                     _FVRCONbits	set	279
  1858     0117                     _FVRCON	set	279
  1859     011E                     _APFCON1	set	286
  1860     011D                     _APFCON0	set	285
  1861     010D                     _LATB	set	269
  1862     010C                     _LATA	set	268
  1863     0116                     _BORCON	set	278
  1864     019A                     _TXREG	set	410
  1865     0199                     _RCREG	set	409
  1866     019D                     _RCSTAbits	set	413
  1867     019E                     _TXSTAbits	set	414
  1868     019C                     _SPBRGH	set	412
  1869     019B                     _SPBRGL	set	411
  1870     019E                     _TXSTA	set	414
  1871     019D                     _RCSTA	set	413
  1872     019F                     _BAUDCON	set	415
  1873     018C                     _ANSELA	set	396
  1874     018D                     _ANSELB	set	397
  1875     020C                     _WPUA	set	524
  1876     020D                     _WPUB	set	525
  1877                           
  1878                           	psect	cinit
  1879     07F3                     start_initialization:	
  1880                           ; #config settings
  1881                           
  1882     07F3                     __initialization:
  1883                           
  1884                           ; Clear objects allocated to BANK1
  1885     07F3  0021               	movlb	1	; select bank1
  1886     07F4  01C5               	clrf	__pbssBANK1& (0+127)
  1887     07F5  01C6               	clrf	(__pbssBANK1+1)& (0+127)
  1888     07F6  01C7               	clrf	(__pbssBANK1+2)& (0+127)
  1889     07F7  01C8               	clrf	(__pbssBANK1+3)& (0+127)
  1890     07F8  01C9               	clrf	(__pbssBANK1+4)& (0+127)
  1891     07F9  01CA               	clrf	(__pbssBANK1+5)& (0+127)
  1892     07FA  01CB               	clrf	(__pbssBANK1+6)& (0+127)
  1893     07FB  01CC               	clrf	(__pbssBANK1+7)& (0+127)
  1894     07FC  01CD               	clrf	(__pbssBANK1+8)& (0+127)
  1895     07FD                     end_of_initialization:	
  1896                           ;End of C runtime variable initialization code
  1897                           
  1898     07FD                     __end_of__initialization:
  1899     07FD  0020               	movlb	0
  1900     07FE  318E  2E55         	ljmp	_main	;jump to C main() function
  1901                           
  1902                           	psect	bssBANK1
  1903     00C5                     __pbssBANK1:
  1904     00C5                     _caracter:
  1905     00C5                     	ds	2
  1906     00C7                     _num_Display:
  1907     00C7                     	ds	2
  1908     00C9                     _datoadc:
  1909     00C9                     	ds	2
  1910     00CB                     _ADC_InterruptHandler:
  1911     00CB                     	ds	2
  1912     00CD                     _eusartRxLastError:
  1913     00CD                     	ds	1
  1914                           
  1915                           	psect	cstackBANK1
  1916     00A0                     __pcstackBANK1:
  1917     00A0                     ??_ADC2Display:
  1918                           
  1919                           ; 1 bytes @ 0x0
  1920     00A0                     	ds	4
  1921     00A4                     _ADC2Display$1444:
  1922                           
  1923                           ; 4 bytes @ 0x4
  1924     00A4                     	ds	4
  1925     00A8                     ADC2Display@aux:
  1926                           
  1927                           ; 1 bytes @ 0x8
  1928     00A8                     	ds	1
  1929     00A9                     ADC2Display@voltios:
  1930                           
  1931                           ; 4 bytes @ 0x9
  1932     00A9                     	ds	4
  1933     00AD                     ADC2Display@dis:
  1934                           
  1935                           ; 1 bytes @ 0xD
  1936     00AD                     	ds	1
  1937     00AE                     main@convirtiendo:
  1938                           
  1939                           ; 1 bytes @ 0xE
  1940     00AE                     	ds	1
  1941     00AF                     main@timer_ADC:
  1942                           
  1943                           ; 7 bytes @ 0xF
  1944     00AF                     	ds	7
  1945     00B6                     main@miserial:
  1946                           
  1947                           ; 10 bytes @ 0x16
  1948     00B6                     	ds	10
  1949     00C0                     main@miDisplay:
  1950                           
  1951                           ; 5 bytes @ 0x20
  1952     00C0                     	ds	5
  1953                           
  1954                           	psect	cstackCOMMON
  1955     0070                     __pcstackCOMMON:
  1956     0070                     ?_PIN_MANAGER_Initialize:
  1957     0070                     ??_PIN_MANAGER_Initialize:	
  1958                           ; 1 bytes @ 0x0
  1959                           
  1960     0070                     ?_OSCILLATOR_Initialize:	
  1961                           ; 1 bytes @ 0x0
  1962                           
  1963     0070                     ??_OSCILLATOR_Initialize:	
  1964                           ; 1 bytes @ 0x0
  1965                           
  1966     0070                     ?_WDT_Initialize:	
  1967                           ; 1 bytes @ 0x0
  1968                           
  1969     0070                     ??_WDT_Initialize:	
  1970                           ; 1 bytes @ 0x0
  1971                           
  1972     0070                     ?_FVR_Initialize:	
  1973                           ; 1 bytes @ 0x0
  1974                           
  1975     0070                     ??_FVR_Initialize:	
  1976                           ; 1 bytes @ 0x0
  1977                           
  1978     0070                     ?_ADC_Initialize:	
  1979                           ; 1 bytes @ 0x0
  1980                           
  1981     0070                     ??_ADC_Initialize:	
  1982                           ; 1 bytes @ 0x0
  1983                           
  1984     0070                     ?_TMR2_Initialize:	
  1985                           ; 1 bytes @ 0x0
  1986                           
  1987     0070                     ??_TMR2_Initialize:	
  1988                           ; 1 bytes @ 0x0
  1989                           
  1990     0070                     ?_EUSART_Initialize:	
  1991                           ; 1 bytes @ 0x0
  1992                           
  1993     0070                     ?_EUSART_SetFramingErrorHandler:	
  1994                           ; 1 bytes @ 0x0
  1995                           
  1996     0070                     ?_EUSART_SetOverrunErrorHandler:	
  1997                           ; 1 bytes @ 0x0
  1998                           
  1999     0070                     ?_EUSART_SetErrorHandler:	
  2000                           ; 1 bytes @ 0x0
  2001                           
  2002     0070                     ?_Tm_Inicie_periodico:	
  2003                           ; 1 bytes @ 0x0
  2004                           
  2005     0070                     ?_inicializar_nuestroserial:	
  2006                           ; 1 bytes @ 0x0
  2007                           
  2008     0070                     ??_inicializar_nuestroserial:	
  2009                           ; 1 bytes @ 0x0
  2010                           
  2011     0070                     ?_inicializar_nuestro_Display:	
  2012                           ; 1 bytes @ 0x0
  2013                           
  2014     0070                     ??_inicializar_nuestro_Display:	
  2015                           ; 1 bytes @ 0x0
  2016                           
  2017     0070                     ?_Tm_Procese_tiempo:	
  2018                           ; 1 bytes @ 0x0
  2019                           
  2020     0070                     ??_Tm_Procese_tiempo:	
  2021                           ; 1 bytes @ 0x0
  2022                           
  2023     0070                     ?_Tm_Hubo_periodico:	
  2024                           ; 1 bytes @ 0x0
  2025                           
  2026     0070                     ??_Tm_Hubo_periodico:	
  2027                           ; 1 bytes @ 0x0
  2028                           
  2029     0070                     ?_Tm_Baje_periodico:	
  2030                           ; 1 bytes @ 0x0
  2031                           
  2032     0070                     ??_Tm_Baje_periodico:	
  2033                           ; 1 bytes @ 0x0
  2034                           
  2035     0070                     ?_llenar_registros_del_Serial:	
  2036                           ; 1 bytes @ 0x0
  2037                           
  2038     0070                     ?_tengodatos_PorEnviar:	
  2039                           ; 1 bytes @ 0x0
  2040                           
  2041     0070                     ??_tengodatos_PorEnviar:	
  2042                           ; 1 bytes @ 0x0
  2043                           
  2044     0070                     ?_enviarsiguiente_Dato:	
  2045                           ; 1 bytes @ 0x0
  2046                           
  2047     0070                     ?_SYSTEM_Initialize:	
  2048                           ; 1 bytes @ 0x0
  2049                           
  2050     0070                     ?_EUSART_is_tx_ready:	
  2051                           ; 1 bytes @ 0x0
  2052                           
  2053     0070                     ??_EUSART_is_tx_ready:	
  2054                           ; 1 bytes @ 0x0
  2055                           
  2056     0070                     ?_EUSART_Write:	
  2057                           ; 1 bytes @ 0x0
  2058                           
  2059     0070                     ??_EUSART_Write:	
  2060                           ; 1 bytes @ 0x0
  2061                           
  2062     0070                     ?_ADC_StartConversion:	
  2063                           ; 1 bytes @ 0x0
  2064                           
  2065     0070                     ??_ADC_StartConversion:	
  2066                           ; 1 bytes @ 0x0
  2067                           
  2068     0070                     ?_ADC_IsConversionDone:	
  2069                           ; 1 bytes @ 0x0
  2070                           
  2071     0070                     ??_ADC_IsConversionDone:	
  2072                           ; 1 bytes @ 0x0
  2073                           
  2074     0070                     ?_TMR2_HasOverflowOccured:	
  2075                           ; 1 bytes @ 0x0
  2076                           
  2077     0070                     ??_TMR2_HasOverflowOccured:	
  2078                           ; 1 bytes @ 0x0
  2079                           
  2080     0070                     ?_main:	
  2081                           ; 1 bytes @ 0x0
  2082                           
  2083     0070                     ?_Prender_seg:	
  2084                           ; 1 bytes @ 0x0
  2085                           
  2086     0070                     ?__Umul8_16:	
  2087                           ; 1 bytes @ 0x0
  2088                           
  2089     0070                     ?_ADC_GetConversionResult:	
  2090                           ; 2 bytes @ 0x0
  2091                           
  2092     0070                     ?___fladd:	
  2093                           ; 2 bytes @ 0x0
  2094                           
  2095     0070                     ?___xxtofl:	
  2096                           ; 4 bytes @ 0x0
  2097                           
  2098     0070                     _EUSART_is_tx_ready$254:	
  2099                           ; 4 bytes @ 0x0
  2100                           
  2101     0070                     EUSART_Write@txData:	
  2102                           ; 1 bytes @ 0x0
  2103                           
  2104     0070                     TMR2_HasOverflowOccured@status:	
  2105                           ; 1 bytes @ 0x0
  2106                           
  2107     0070                     Tm_Hubo_periodico@ctp:	
  2108                           ; 1 bytes @ 0x0
  2109                           
  2110     0070                     inicializar_nuestro_Display@dis:	
  2111                           ; 1 bytes @ 0x0
  2112                           
  2113     0070                     tengodatos_PorEnviar@ser:	
  2114                           ; 1 bytes @ 0x0
  2115                           
  2116     0070                     llenar_registros_del_Serial@Dig1:	
  2117                           ; 1 bytes @ 0x0
  2118                           
  2119     0070                     __Umul8_16@multiplicand:	
  2120                           ; 1 bytes @ 0x0
  2121                           
  2122     0070                     EUSART_SetFramingErrorHandler@interruptHandler:	
  2123                           ; 1 bytes @ 0x0
  2124                           
  2125     0070                     EUSART_SetOverrunErrorHandler@interruptHandler:	
  2126                           ; 2 bytes @ 0x0
  2127                           
  2128     0070                     EUSART_SetErrorHandler@interruptHandler:	
  2129                           ; 2 bytes @ 0x0
  2130                           
  2131     0070                     Tm_Inicie_periodico@periodo:	
  2132                           ; 2 bytes @ 0x0
  2133                           
  2134     0070                     Prender_seg@caracter:	
  2135                           ; 2 bytes @ 0x0
  2136                           
  2137     0070                     ___fladd@b:	
  2138                           ; 2 bytes @ 0x0
  2139                           
  2140     0070                     ___xxtofl@val:	
  2141                           ; 4 bytes @ 0x0
  2142                           
  2143                           
  2144                           ; 4 bytes @ 0x0
  2145     0070                     	ds	1
  2146     0071                     ??_enviarsiguiente_Dato:
  2147     0071                     Tm_Baje_periodico@ctp:	
  2148                           ; 1 bytes @ 0x1
  2149                           
  2150     0071                     inicializar_nuestroserial@ser:	
  2151                           ; 1 bytes @ 0x1
  2152                           
  2153     0071                     llenar_registros_del_Serial@Dig2:	
  2154                           ; 1 bytes @ 0x1
  2155                           
  2156                           
  2157                           ; 1 bytes @ 0x1
  2158     0071                     	ds	1
  2159     0072                     ??_EUSART_Initialize:
  2160     0072                     ??_EUSART_SetFramingErrorHandler:	
  2161                           ; 1 bytes @ 0x2
  2162                           
  2163     0072                     ??_EUSART_SetOverrunErrorHandler:	
  2164                           ; 1 bytes @ 0x2
  2165                           
  2166     0072                     ??_EUSART_SetErrorHandler:	
  2167                           ; 1 bytes @ 0x2
  2168                           
  2169     0072                     ??_Tm_Inicie_periodico:	
  2170                           ; 1 bytes @ 0x2
  2171                           
  2172     0072                     ?_mostrar_Display:	
  2173                           ; 1 bytes @ 0x2
  2174                           
  2175     0072                     ??__Umul8_16:	
  2176                           ; 1 bytes @ 0x2
  2177                           
  2178     0072                     ??_SYSTEM_Initialize:	
  2179                           ; 1 bytes @ 0x2
  2180                           
  2181     0072                     ??_ADC_GetConversionResult:	
  2182                           ; 1 bytes @ 0x2
  2183                           
  2184     0072                     ??_Prender_seg:	
  2185                           ; 1 bytes @ 0x2
  2186                           
  2187     0072                     llenar_registros_del_Serial@Dig3:	
  2188                           ; 1 bytes @ 0x2
  2189                           
  2190     0072                     enviarsiguiente_Dato@ser:	
  2191                           ; 1 bytes @ 0x2
  2192                           
  2193     0072                     mostrar_Display@caracter:	
  2194                           ; 1 bytes @ 0x2
  2195                           
  2196                           
  2197                           ; 2 bytes @ 0x2
  2198     0072                     	ds	1
  2199     0073                     ??_llenar_registros_del_Serial:
  2200     0073                     Tm_Inicie_periodico@ctp:	
  2201                           ; 1 bytes @ 0x3
  2202                           
  2203     0073                     llenar_registros_del_Serial@ser:	
  2204                           ; 1 bytes @ 0x3
  2205                           
  2206                           
  2207                           ; 1 bytes @ 0x3
  2208     0073                     	ds	1
  2209     0074                     ??_mostrar_Display:
  2210     0074                     ??___xxtofl:	
  2211                           ; 1 bytes @ 0x4
  2212                           
  2213     0074                     Tm_Procese_tiempo@ctp:	
  2214                           ; 1 bytes @ 0x4
  2215                           
  2216     0074                     __Umul8_16@product:	
  2217                           ; 1 bytes @ 0x4
  2218                           
  2219     0074                     ___fladd@a:	
  2220                           ; 2 bytes @ 0x4
  2221                           
  2222                           
  2223                           ; 4 bytes @ 0x4
  2224     0074                     	ds	2
  2225     0076                     mostrar_Display@dis:
  2226     0076                     __Umul8_16@word_mpld:	
  2227                           ; 1 bytes @ 0x6
  2228                           
  2229                           
  2230                           ; 2 bytes @ 0x6
  2231     0076                     	ds	2
  2232     0078                     ___fladd@signs:
  2233     0078                     __Umul8_16@multiplier:	
  2234                           ; 1 bytes @ 0x8
  2235                           
  2236     0078                     ___xxtofl@sign:	
  2237                           ; 1 bytes @ 0x8
  2238                           
  2239                           
  2240                           ; 1 bytes @ 0x8
  2241     0078                     	ds	1
  2242     0079                     ___fladd@aexp:
  2243     0079                     ___xxtofl@exp:	
  2244                           ; 1 bytes @ 0x9
  2245                           
  2246                           
  2247                           ; 1 bytes @ 0x9
  2248     0079                     	ds	1
  2249     007A                     ___fladd@bexp:
  2250     007A                     ___xxtofl@arg:	
  2251                           ; 1 bytes @ 0xA
  2252                           
  2253                           
  2254                           ; 4 bytes @ 0xA
  2255     007A                     	ds	1
  2256     007B                     ___fladd@grs:
  2257                           
  2258                           ; 1 bytes @ 0xB
  2259     007B                     	ds	3
  2260     007E                     ??_main:
  2261     007E                     ??___flsub:	
  2262                           ; 1 bytes @ 0xE
  2263                           
  2264                           
  2265                           	psect	cstackBANK0
  2266     0020                     __pcstackBANK0:	
  2267                           ; 1 bytes @ 0xE
  2268                           
  2269     0020                     ??___fladd:
  2270                           
  2271                           ; 1 bytes @ 0x0
  2272     0020                     	ds	8
  2273     0028                     ?___flsub:
  2274     0028                     ___flsub@a:	
  2275                           ; 4 bytes @ 0x8
  2276                           
  2277                           
  2278                           ; 4 bytes @ 0x8
  2279     0028                     	ds	4
  2280     002C                     ___flsub@b:
  2281                           
  2282                           ; 4 bytes @ 0xC
  2283     002C                     	ds	4
  2284     0030                     ?___flmul:
  2285     0030                     ___flmul@b:	
  2286                           ; 4 bytes @ 0x10
  2287                           
  2288                           
  2289                           ; 4 bytes @ 0x10
  2290     0030                     	ds	4
  2291     0034                     ___flmul@a:
  2292                           
  2293                           ; 4 bytes @ 0x14
  2294     0034                     	ds	4
  2295     0038                     ??___flmul:
  2296                           
  2297                           ; 1 bytes @ 0x18
  2298     0038                     	ds	5
  2299     003D                     ___flmul@sign:
  2300                           
  2301                           ; 1 bytes @ 0x1D
  2302     003D                     	ds	1
  2303     003E                     ___flmul@grs:
  2304                           
  2305                           ; 4 bytes @ 0x1E
  2306     003E                     	ds	4
  2307     0042                     ___flmul@aexp:
  2308                           
  2309                           ; 1 bytes @ 0x22
  2310     0042                     	ds	1
  2311     0043                     ___flmul@bexp:
  2312                           
  2313                           ; 1 bytes @ 0x23
  2314     0043                     	ds	1
  2315     0044                     ___flmul@prod:
  2316                           
  2317                           ; 4 bytes @ 0x24
  2318     0044                     	ds	4
  2319     0048                     ___flmul@temp:
  2320                           
  2321                           ; 2 bytes @ 0x28
  2322     0048                     	ds	2
  2323     004A                     ?___fldiv:
  2324     004A                     ___fldiv@a:	
  2325                           ; 4 bytes @ 0x2A
  2326                           
  2327                           
  2328                           ; 4 bytes @ 0x2A
  2329     004A                     	ds	4
  2330     004E                     ___fldiv@b:
  2331                           
  2332                           ; 4 bytes @ 0x2E
  2333     004E                     	ds	4
  2334     0052                     ??___fldiv:
  2335                           
  2336                           ; 1 bytes @ 0x32
  2337     0052                     	ds	5
  2338     0057                     ___fldiv@rem:
  2339                           
  2340                           ; 4 bytes @ 0x37
  2341     0057                     	ds	4
  2342     005B                     ___fldiv@sign:
  2343                           
  2344                           ; 1 bytes @ 0x3B
  2345     005B                     	ds	1
  2346     005C                     ___fldiv@new_exp:
  2347                           
  2348                           ; 2 bytes @ 0x3C
  2349     005C                     	ds	2
  2350     005E                     ___fldiv@grs:
  2351                           
  2352                           ; 4 bytes @ 0x3E
  2353     005E                     	ds	4
  2354     0062                     ___fldiv@bexp:
  2355                           
  2356                           ; 1 bytes @ 0x42
  2357     0062                     	ds	1
  2358     0063                     ___fldiv@aexp:
  2359                           
  2360                           ; 1 bytes @ 0x43
  2361     0063                     	ds	1
  2362     0064                     ?___fltol:
  2363     0064                     ___fltol@f1:	
  2364                           ; 4 bytes @ 0x44
  2365                           
  2366                           
  2367                           ; 4 bytes @ 0x44
  2368     0064                     	ds	4
  2369     0068                     ??___fltol:
  2370                           
  2371                           ; 1 bytes @ 0x48
  2372     0068                     	ds	4
  2373     006C                     ___fltol@sign1:
  2374                           
  2375                           ; 1 bytes @ 0x4C
  2376     006C                     	ds	1
  2377     006D                     ___fltol@exp1:
  2378                           
  2379                           ; 1 bytes @ 0x4D
  2380     006D                     	ds	1
  2381     006E                     ?_ADC2Display:
  2382     006E                     ADC2Display@adcVal:	
  2383                           ; 1 bytes @ 0x4E
  2384                           
  2385                           
  2386                           ; 2 bytes @ 0x4E
  2387     006E                     	ds	2
  2388                           
  2389                           	psect	maintext
  2390     0E55                     __pmaintext:	
  2391 ;;
  2392 ;;Main: autosize = 0, tempsize = 0, incstack = 0, save=0
  2393 ;;
  2394 ;; *************** function _main *****************
  2395 ;; Defined at:
  2396 ;;		line 22 in file "main.c"
  2397 ;; Parameters:    Size  Location     Type
  2398 ;;		None
  2399 ;; Auto vars:     Size  Location     Type
  2400 ;;  miserial       10   22[BANK1 ] struct Sr_Serial
  2401 ;;  timer_ADC       7   15[BANK1 ] struct Tm_Periodico
  2402 ;;  miDisplay       5   32[BANK1 ] struct Ds_Display
  2403 ;;  convirtiendo    1   14[BANK1 ] unsigned char 
  2404 ;; Return value:  Size  Location     Type
  2405 ;;                  1    wreg      void 
  2406 ;; Registers used:
  2407 ;;		wreg, fsr0l, fsr0h, fsr1l, fsr1h, status,2, status,0, pclath, cstack
  2408 ;; Tracked objects:
  2409 ;;		On entry : B1F/0
  2410 ;;		On exit  : 0/0
  2411 ;;		Unchanged: 0/0
  2412 ;; Data sizes:     COMMON   BANK0   BANK1   BANK2   BANK3   BANK4
  2413 ;;      Params:         0       0       0       0       0       0
  2414 ;;      Locals:         0       0      23       0       0       0
  2415 ;;      Temps:          0       0       0       0       0       0
  2416 ;;      Totals:         0       0      23       0       0       0
  2417 ;;Total ram usage:       23 bytes
  2418 ;; Hardware stack levels required when called: 3
  2419 ;; This function calls:
  2420 ;;		_ADC2Display
  2421 ;;		_ADC_GetConversionResult
  2422 ;;		_ADC_IsConversionDone
  2423 ;;		_ADC_StartConversion
  2424 ;;		_EUSART_is_tx_ready
  2425 ;;		_SYSTEM_Initialize
  2426 ;;		_TMR2_HasOverflowOccured
  2427 ;;		_Tm_Baje_periodico
  2428 ;;		_Tm_Hubo_periodico
  2429 ;;		_Tm_Inicie_periodico
  2430 ;;		_Tm_Procese_tiempo
  2431 ;;		_enviarsiguiente_Dato
  2432 ;;		_inicializar_nuestro_Display
  2433 ;;		_inicializar_nuestroserial
  2434 ;;		_llenar_registros_del_Serial
  2435 ;;		_mostrar_Display
  2436 ;;		_tengodatos_PorEnviar
  2437 ;; This function is called by:
  2438 ;;		Startup code after reset
  2439 ;; This function uses a non-reentrant model
  2440 ;;
  2441                           
  2442     0E55                     _main:	
  2443                           ;psect for function _main
  2444                           
  2445     0E55                     l2906:	
  2446                           ;incstack = 0
  2447                           ; Regs used in _main: [wreg-fsr1h+status,2+status,0+pclath+cstack]
  2448                           
  2449                           
  2450                           ;main.c: 25:     SYSTEM_Initialize();
  2451     0E55  318C  2448  318E   	fcall	_SYSTEM_Initialize
  2452     0E58                     l2908:
  2453                           
  2454                           ;main.c: 27:     Tm_Periodico timer_ADC;;main.c: 28:  Tm_Inicie_periodico(&timer_ADC,200
      +                          );
  2455     0E58  30C8               	movlw	200
  2456     0E59  00F0               	movwf	Tm_Inicie_periodico@periodo
  2457     0E5A  3000               	movlw	0
  2458     0E5B  00F1               	movwf	Tm_Inicie_periodico@periodo+1
  2459     0E5C  30AF               	movlw	(low (main@timer_ADC| 0))& (0+255)
  2460     0E5D  318C  2476  318E   	fcall	_Tm_Inicie_periodico
  2461     0E60                     l2910:
  2462                           
  2463                           ;main.c: 31:     Sr_Serial miserial;;main.c: 32:     inicializar_nuestroserial(&miserial
      +                          );
  2464     0E60  30B6               	movlw	(low (main@miserial| 0))& (0+255)
  2465     0E61  318C  24F7  318E   	fcall	_inicializar_nuestroserial
  2466     0E64                     l2912:
  2467                           
  2468                           ;main.c: 35:     Ds_Display miDisplay;;main.c: 36:     inicializar_nuestro_Display(&miDi
      +                          splay);
  2469     0E64  30C0               	movlw	(low (main@miDisplay| 0))& (0+255)
  2470     0E65  318C  24B4  318E   	fcall	_inicializar_nuestro_Display
  2471     0E68                     l2914:
  2472                           
  2473                           ;main.c: 38:     char convirtiendo = 0;
  2474     0E68  0021               	movlb	1	; select bank1
  2475     0E69  01AE               	clrf	main@convirtiendo^(0+128)
  2476     0E6A                     l2916:
  2477                           
  2478                           ;main.c: 41:         if( TMR2_HasOverflowOccured()){
  2479     0E6A  318C  2408  318E   	fcall	_TMR2_HasOverflowOccured
  2480     0E6D  3A00               	xorlw	0
  2481     0E6E  1903               	skipnz
  2482     0E6F  2E71               	goto	u2881
  2483     0E70  2E72               	goto	u2880
  2484     0E71                     u2881:
  2485     0E71  2E7D               	goto	l2920
  2486     0E72                     u2880:
  2487     0E72                     l2918:
  2488                           
  2489                           ;main.c: 42:             Tm_Procese_tiempo (&timer_ADC);
  2490     0E72  30AF               	movlw	(low (main@timer_ADC| 0))& (0+255)
  2491     0E73  318D  251D  318E   	fcall	_Tm_Procese_tiempo
  2492                           
  2493                           ;main.c: 43:             mostrar_Display(&miDisplay, num_Display);
  2494     0E76  3000               	movlw	0
  2495     0E77  00F2               	movwf	mostrar_Display@caracter
  2496     0E78  00F3               	movwf	mostrar_Display@caracter+1
  2497     0E79  30C0               	movlw	(low (main@miDisplay| 0))& (0+255)
  2498     0E7A  318D  25D8  318E   	fcall	_mostrar_Display
  2499     0E7D                     l2920:
  2500                           
  2501                           ;main.c: 48:         if(Tm_Hubo_periodico(&timer_ADC)){
  2502     0E7D  30AF               	movlw	(low (main@timer_ADC| 0))& (0+255)
  2503     0E7E  318B  23EC  318E   	fcall	_Tm_Hubo_periodico
  2504     0E81  3A00               	xorlw	0
  2505     0E82  1903               	skipnz
  2506     0E83  2E85               	goto	u2891
  2507     0E84  2E86               	goto	u2890
  2508     0E85                     u2891:
  2509     0E85  2E90               	goto	l2928
  2510     0E86                     u2890:
  2511     0E86                     l2922:
  2512                           
  2513                           ;main.c: 49:             Tm_Baje_periodico(&timer_ADC);
  2514     0E86  30AF               	movlw	(low (main@timer_ADC| 0))& (0+255)
  2515     0E87  318B  23F4  318E   	fcall	_Tm_Baje_periodico
  2516     0E8A                     l2924:
  2517                           
  2518                           ;main.c: 50:             ADC_StartConversion();
  2519     0E8A  318B  23AB  318E   	fcall	_ADC_StartConversion
  2520     0E8D                     l2926:
  2521                           
  2522                           ;main.c: 51:             convirtiendo = 1;
  2523     0E8D  0021               	movlb	1	; select bank1
  2524     0E8E  01AE               	clrf	main@convirtiendo^(0+128)
  2525     0E8F  0AAE               	incf	main@convirtiendo^(0+128),f
  2526     0E90                     l2928:
  2527                           
  2528                           ;main.c: 53:         if( ADC_IsConversionDone()&&convirtiendo){
  2529     0E90  318B  23CE  318E   	fcall	_ADC_IsConversionDone
  2530     0E93  3A00               	xorlw	0
  2531     0E94  1903               	skipnz
  2532     0E95  2E97               	goto	u2901
  2533     0E96  2E98               	goto	u2900
  2534     0E97                     u2901:
  2535     0E97  2EBD               	goto	l275
  2536     0E98                     u2900:
  2537     0E98                     l2930:
  2538     0E98  0021               	movlb	1	; select bank1
  2539     0E99  082E               	movf	main@convirtiendo^(0+128),w
  2540     0E9A  1903               	btfsc	3,2
  2541     0E9B  2E9D               	goto	u2911
  2542     0E9C  2E9E               	goto	u2910
  2543     0E9D                     u2911:
  2544     0E9D  2EBD               	goto	l275
  2545     0E9E                     u2910:
  2546     0E9E                     l2932:
  2547                           
  2548                           ;main.c: 54:             convirtiendo = 0;
  2549     0E9E  01AE               	clrf	main@convirtiendo^(0+128)
  2550     0E9F                     l2934:
  2551                           
  2552                           ;main.c: 55:             datoadc= ADC_GetConversionResult();
  2553     0E9F  318B  23B6  318E   	fcall	_ADC_GetConversionResult
  2554     0EA2  0871               	movf	?_ADC_GetConversionResult+1,w
  2555     0EA3  0021               	movlb	1	; select bank1
  2556     0EA4  00CA               	movwf	(_datoadc+1)^(0+128)
  2557     0EA5  0870               	movf	?_ADC_GetConversionResult,w
  2558     0EA6  00C9               	movwf	_datoadc^(0+128)
  2559     0EA7                     l2936:
  2560                           
  2561                           ;main.c: 56:             ADC2Display(&miDisplay, datoadc);
  2562     0EA7  084A               	movf	(_datoadc+1)^(0+128),w
  2563     0EA8  0020               	movlb	0	; select bank0
  2564     0EA9  00EF               	movwf	ADC2Display@adcVal+1
  2565     0EAA  0021               	movlb	1	; select bank1
  2566     0EAB  0849               	movf	_datoadc^(0+128),w
  2567     0EAC  0020               	movlb	0	; select bank0
  2568     0EAD  00EE               	movwf	ADC2Display@adcVal
  2569     0EAE  30C0               	movlw	(low (main@miDisplay| 0))& (0+255)
  2570     0EAF  3180  2072  318E   	fcall	_ADC2Display
  2571     0EB2                     l2938:
  2572                           
  2573                           ;main.c: 58:             llenar_registros_del_Serial(&miserial,miDisplay.Digito1,miDispl
      +                          ay.Digito2,miDisplay.Digito3);
  2574     0EB2  0021               	movlb	1	; select bank1
  2575     0EB3  0840               	movf	main@miDisplay^(0+128),w
  2576     0EB4  00F0               	movwf	llenar_registros_del_Serial@Dig1
  2577     0EB5  0841               	movf	(main@miDisplay^(0+128)+1),w
  2578     0EB6  00F1               	movwf	llenar_registros_del_Serial@Dig2
  2579     0EB7  0842               	movf	(main@miDisplay^(0+128)+2),w
  2580     0EB8  00F2               	movwf	llenar_registros_del_Serial@Dig3
  2581     0EB9  30B6               	movlw	(low (main@miserial| 0))& (0+255)
  2582     0EBA  3180  2028  318E   	fcall	_llenar_registros_del_Serial
  2583     0EBD                     l275:	
  2584                           ;main.c: 59:         }
  2585                           
  2586                           
  2587                           ;main.c: 60:         if(EUSART_is_tx_ready() && tengodatos_PorEnviar(&miserial)){
  2588     0EBD  318C  2423  318E   	fcall	_EUSART_is_tx_ready
  2589     0EC0  3A00               	xorlw	0
  2590     0EC1  1903               	skipnz
  2591     0EC2  2EC4               	goto	u2921
  2592     0EC3  2EC5               	goto	u2920
  2593     0EC4                     u2921:
  2594     0EC4  2E6A               	goto	l2916
  2595     0EC5                     u2920:
  2596     0EC5                     l2940:
  2597     0EC5  30B6               	movlw	(low (main@miserial| 0))& (0+255)
  2598     0EC6  318C  2415  318E   	fcall	_tengodatos_PorEnviar
  2599     0EC9  3A00               	xorlw	0
  2600     0ECA  1903               	skipnz
  2601     0ECB  2ECD               	goto	u2931
  2602     0ECC  2ECE               	goto	u2930
  2603     0ECD                     u2931:
  2604     0ECD  2E6A               	goto	l2916
  2605     0ECE                     u2930:
  2606     0ECE                     l2942:
  2607                           
  2608                           ;main.c: 61:             enviarsiguiente_Dato(&miserial);
  2609     0ECE  30B6               	movlw	(low (main@miserial| 0))& (0+255)
  2610     0ECF  318C  245E  318E   	fcall	_enviarsiguiente_Dato
  2611     0ED2  2E6A               	goto	l2916
  2612     0ED3  3180  2802         	ljmp	start
  2613     0ED5                     __end_of_main:
  2614                           
  2615                           	psect	text1
  2616     0C15                     __ptext1:	
  2617 ;; *************** function _tengodatos_PorEnviar *****************
  2618 ;; Defined at:
  2619 ;;		line 17 in file "nuestroserial.c"
  2620 ;; Parameters:    Size  Location     Type
  2621 ;;  ser             1    wreg     PTR struct Sr_Serial
  2622 ;;		 -> main@miserial(10), 
  2623 ;; Auto vars:     Size  Location     Type
  2624 ;;  ser             1    0[COMMON] PTR struct Sr_Serial
  2625 ;;		 -> main@miserial(10), 
  2626 ;; Return value:  Size  Location     Type
  2627 ;;                  1    wreg      unsigned char 
  2628 ;; Registers used:
  2629 ;;		wreg, fsr1l, fsr1h, status,2, status,0
  2630 ;; Tracked objects:
  2631 ;;		On entry : 0/0
  2632 ;;		On exit  : 0/0
  2633 ;;		Unchanged: 0/0
  2634 ;; Data sizes:     COMMON   BANK0   BANK1   BANK2   BANK3   BANK4
  2635 ;;      Params:         0       0       0       0       0       0
  2636 ;;      Locals:         1       0       0       0       0       0
  2637 ;;      Temps:          0       0       0       0       0       0
  2638 ;;      Totals:         1       0       0       0       0       0
  2639 ;;Total ram usage:        1 bytes
  2640 ;; Hardware stack levels used: 1
  2641 ;; This function calls:
  2642 ;;		Nothing
  2643 ;; This function is called by:
  2644 ;;		_main
  2645 ;; This function uses a non-reentrant model
  2646 ;;
  2647                           
  2648     0C15                     _tengodatos_PorEnviar:	
  2649                           ;psect for function _tengodatos_PorEnviar
  2650                           
  2651                           
  2652                           ;incstack = 0
  2653                           ; Regs used in _tengodatos_PorEnviar: [wreg+fsr1l+fsr1h+status,2+status,0]
  2654                           ;tengodatos_PorEnviar@ser stored from wreg
  2655     0C15  00F0               	movwf	tengodatos_PorEnviar@ser
  2656     0C16                     l2886:
  2657                           
  2658                           ;nuestroserial.c: 18:     return ser->contador < 6;
  2659     0C16  0870               	movf	tengodatos_PorEnviar@ser,w
  2660     0C17  3E06               	addlw	6
  2661     0C18  0086               	movwf	6
  2662     0C19  0187               	clrf	7
  2663     0C1A  3006               	movlw	6
  2664     0C1B  0201               	subwf	1,w
  2665     0C1C  1C03               	skipc
  2666     0C1D  2C1F               	goto	u2841
  2667     0C1E  2C21               	goto	u2840
  2668     0C1F                     u2841:
  2669     0C1F  3001               	movlw	1
  2670     0C20  2C22               	goto	u2850
  2671     0C21                     u2840:
  2672     0C21  3000               	movlw	0
  2673     0C22                     u2850:
  2674     0C22                     l534:
  2675     0C22  0008               	return
  2676     0C23                     __end_of_tengodatos_PorEnviar:
  2677                           
  2678                           	psect	text2
  2679     0DD8                     __ptext2:	
  2680 ;; *************** function _mostrar_Display *****************
  2681 ;; Defined at:
  2682 ;;		line 159 in file "nuestrodisplay.c"
  2683 ;; Parameters:    Size  Location     Type
  2684 ;;  dis             1    wreg     PTR struct Ds_Display
  2685 ;;		 -> main@miDisplay(5), 
  2686 ;;  caracter        2    2[COMMON] unsigned int 
  2687 ;; Auto vars:     Size  Location     Type
  2688 ;;  dis             1    6[COMMON] PTR struct Ds_Display
  2689 ;;		 -> main@miDisplay(5), 
  2690 ;; Return value:  Size  Location     Type
  2691 ;;                  1    wreg      void 
  2692 ;; Registers used:
  2693 ;;		wreg, fsr0l, fsr0h, fsr1l, fsr1h, status,2, status,0, pclath, cstack
  2694 ;; Tracked objects:
  2695 ;;		On entry : 0/0
  2696 ;;		On exit  : 0/0
  2697 ;;		Unchanged: 0/0
  2698 ;; Data sizes:     COMMON   BANK0   BANK1   BANK2   BANK3   BANK4
  2699 ;;      Params:         2       0       0       0       0       0
  2700 ;;      Locals:         1       0       0       0       0       0
  2701 ;;      Temps:          2       0       0       0       0       0
  2702 ;;      Totals:         5       0       0       0       0       0
  2703 ;;Total ram usage:        5 bytes
  2704 ;; Hardware stack levels used: 1
  2705 ;; Hardware stack levels required when called: 1
  2706 ;; This function calls:
  2707 ;;		_Prender_seg
  2708 ;; This function is called by:
  2709 ;;		_main
  2710 ;; This function uses a non-reentrant model
  2711 ;;
  2712                           
  2713     0DD8                     _mostrar_Display:	
  2714                           ;psect for function _mostrar_Display
  2715                           
  2716                           
  2717                           ;incstack = 0
  2718                           ; Regs used in _mostrar_Display: [wreg-fsr1h+status,2+status,0+pclath+cstack]
  2719                           ;mostrar_Display@dis stored from wreg
  2720     0DD8  00F6               	movwf	mostrar_Display@dis
  2721     0DD9                     l2814:
  2722                           
  2723                           ;nuestrodisplay.c: 161:     switch(dis->estado){
  2724     0DD9  2E3C               	goto	l2836
  2725     0DDA                     l501:	
  2726                           ;nuestrodisplay.c: 164:         do { LATBbits.LATB3 = 1; } while(0);
  2727                           
  2728     0DDA  0022               	movlb	2	; select bank2
  2729     0DDB  158D               	bsf	13,3	;volatile
  2730     0DDC                     l503:	
  2731                           ;nuestrodisplay.c: 165:         do { LATBbits.LATB4 = 0; } while(0);
  2732                           
  2733     0DDC  120D               	bcf	13,4	;volatile
  2734     0DDD                     l505:	
  2735                           ;nuestrodisplay.c: 166:         do { LATBbits.LATB5 = 0; } while(0);
  2736                           
  2737     0DDD  128D               	bcf	13,5	;volatile
  2738     0DDE                     l2816:
  2739                           
  2740                           ;nuestrodisplay.c: 167:         caracter=dis->Digito1;
  2741     0DDE  0876               	movf	mostrar_Display@dis,w
  2742     0DDF  0086               	movwf	6
  2743     0DE0  0187               	clrf	7
  2744     0DE1  0801               	movf	1,w
  2745     0DE2  00F4               	movwf	??_mostrar_Display
  2746     0DE3  01F5               	clrf	??_mostrar_Display+1
  2747     0DE4  0874               	movf	??_mostrar_Display,w
  2748     0DE5  00F2               	movwf	mostrar_Display@caracter
  2749     0DE6  0875               	movf	??_mostrar_Display+1,w
  2750     0DE7  00F3               	movwf	mostrar_Display@caracter+1
  2751     0DE8                     l2818:
  2752                           
  2753                           ;nuestrodisplay.c: 168:         Prender_seg(caracter);
  2754     0DE8  0873               	movf	mostrar_Display@caracter+1,w
  2755     0DE9  00F1               	movwf	Prender_seg@caracter+1
  2756     0DEA  0872               	movf	mostrar_Display@caracter,w
  2757     0DEB  00F0               	movwf	Prender_seg@caracter
  2758     0DEC  318E  26D5  318D   	fcall	_Prender_seg
  2759     0DEF                     l2820:
  2760                           
  2761                           ;nuestrodisplay.c: 169:         dis->estado = 1;
  2762     0DEF  0876               	movf	mostrar_Display@dis,w
  2763     0DF0  3E03               	addlw	3
  2764     0DF1  0086               	movwf	6
  2765     0DF2  0187               	clrf	7
  2766     0DF3  3001               	movlw	1
  2767     0DF4  3FC0               	movwi [0]fsr1
  2768     0DF5  3000               	movlw	0
  2769     0DF6  3FC1               	movwi [1]fsr1
  2770                           
  2771                           ;nuestrodisplay.c: 171:         break;
  2772     0DF7  2E54               	goto	l523
  2773     0DF8                     l509:	
  2774                           ;nuestrodisplay.c: 173:         do { LATBbits.LATB3 = 0; } while(0);
  2775                           
  2776     0DF8  0022               	movlb	2	; select bank2
  2777     0DF9  118D               	bcf	13,3	;volatile
  2778     0DFA                     l511:	
  2779                           ;nuestrodisplay.c: 174:         do { LATBbits.LATB4 = 1; } while(0);
  2780                           
  2781     0DFA  160D               	bsf	13,4	;volatile
  2782     0DFB                     l513:	
  2783                           ;nuestrodisplay.c: 175:         do { LATBbits.LATB5 = 0; } while(0);
  2784                           
  2785     0DFB  128D               	bcf	13,5	;volatile
  2786     0DFC                     l2822:
  2787                           
  2788                           ;nuestrodisplay.c: 176:         caracter=dis->Digito2;
  2789     0DFC  0A76               	incf	mostrar_Display@dis,w
  2790     0DFD  0086               	movwf	6
  2791     0DFE  0187               	clrf	7
  2792     0DFF  0801               	movf	1,w
  2793     0E00  00F4               	movwf	??_mostrar_Display
  2794     0E01  01F5               	clrf	??_mostrar_Display+1
  2795     0E02  0874               	movf	??_mostrar_Display,w
  2796     0E03  00F2               	movwf	mostrar_Display@caracter
  2797     0E04  0875               	movf	??_mostrar_Display+1,w
  2798     0E05  00F3               	movwf	mostrar_Display@caracter+1
  2799     0E06                     l2824:
  2800                           
  2801                           ;nuestrodisplay.c: 177:         Prender_seg(caracter);
  2802     0E06  0873               	movf	mostrar_Display@caracter+1,w
  2803     0E07  00F1               	movwf	Prender_seg@caracter+1
  2804     0E08  0872               	movf	mostrar_Display@caracter,w
  2805     0E09  00F0               	movwf	Prender_seg@caracter
  2806     0E0A  318E  26D5  318D   	fcall	_Prender_seg
  2807     0E0D                     l2826:
  2808                           
  2809                           ;nuestrodisplay.c: 178:         dis->estado = 2;
  2810     0E0D  0876               	movf	mostrar_Display@dis,w
  2811     0E0E  3E03               	addlw	3
  2812     0E0F  0086               	movwf	6
  2813     0E10  0187               	clrf	7
  2814     0E11  3002               	movlw	2
  2815     0E12  3FC0               	movwi [0]fsr1
  2816     0E13  3000               	movlw	0
  2817     0E14  3FC1               	movwi [1]fsr1
  2818                           
  2819                           ;nuestrodisplay.c: 180:         break;
  2820     0E15  2E54               	goto	l523
  2821     0E16                     l516:	
  2822                           ;nuestrodisplay.c: 182:         do { LATBbits.LATB3 = 0; } while(0);
  2823                           
  2824     0E16  0022               	movlb	2	; select bank2
  2825     0E17  118D               	bcf	13,3	;volatile
  2826     0E18                     l518:	
  2827                           ;nuestrodisplay.c: 183:         do { LATBbits.LATB4 = 0; } while(0);
  2828                           
  2829     0E18  120D               	bcf	13,4	;volatile
  2830     0E19                     l520:	
  2831                           ;nuestrodisplay.c: 184:         do { LATBbits.LATB5 = 1; } while(0);
  2832                           
  2833     0E19  168D               	bsf	13,5	;volatile
  2834     0E1A                     l2828:
  2835                           
  2836                           ;nuestrodisplay.c: 185:         caracter=dis->Digito3;
  2837     0E1A  0876               	movf	mostrar_Display@dis,w
  2838     0E1B  3E02               	addlw	2
  2839     0E1C  0086               	movwf	6
  2840     0E1D  0187               	clrf	7
  2841     0E1E  0801               	movf	1,w
  2842     0E1F  00F4               	movwf	??_mostrar_Display
  2843     0E20  01F5               	clrf	??_mostrar_Display+1
  2844     0E21  0874               	movf	??_mostrar_Display,w
  2845     0E22  00F2               	movwf	mostrar_Display@caracter
  2846     0E23  0875               	movf	??_mostrar_Display+1,w
  2847     0E24  00F3               	movwf	mostrar_Display@caracter+1
  2848     0E25                     l2830:
  2849                           
  2850                           ;nuestrodisplay.c: 186:         Prender_seg(caracter);
  2851     0E25  0873               	movf	mostrar_Display@caracter+1,w
  2852     0E26  00F1               	movwf	Prender_seg@caracter+1
  2853     0E27  0872               	movf	mostrar_Display@caracter,w
  2854     0E28  00F0               	movwf	Prender_seg@caracter
  2855     0E29  318E  26D5  318D   	fcall	_Prender_seg
  2856     0E2C                     l2832:
  2857                           
  2858                           ;nuestrodisplay.c: 187:         dis->estado = 0;
  2859     0E2C  0876               	movf	mostrar_Display@dis,w
  2860     0E2D  3E03               	addlw	3
  2861     0E2E  0086               	movwf	6
  2862     0E2F  0187               	clrf	7
  2863     0E30  3000               	movlw	0
  2864     0E31  3FC0               	movwi [0]fsr1
  2865     0E32  3FC1               	movwi [1]fsr1
  2866                           
  2867                           ;nuestrodisplay.c: 188:         break;
  2868     0E33  2E54               	goto	l523
  2869     0E34                     l2834:
  2870                           
  2871                           ;nuestrodisplay.c: 191:         dis->estado = 0;
  2872     0E34  0876               	movf	mostrar_Display@dis,w
  2873     0E35  3E03               	addlw	3
  2874     0E36  0086               	movwf	6
  2875     0E37  0187               	clrf	7
  2876     0E38  3000               	movlw	0
  2877     0E39  3FC0               	movwi [0]fsr1
  2878     0E3A  3FC1               	movwi [1]fsr1
  2879                           
  2880                           ;nuestrodisplay.c: 192:     }
  2881     0E3B  2E54               	goto	l523
  2882     0E3C                     l2836:
  2883     0E3C  0876               	movf	mostrar_Display@dis,w
  2884     0E3D  3E03               	addlw	3
  2885     0E3E  0086               	movwf	6
  2886     0E3F  0187               	clrf	7
  2887     0E40  3F40               	moviw [0]fsr1
  2888     0E41  00F4               	movwf	??_mostrar_Display
  2889     0E42  3F41               	moviw [1]fsr1
  2890     0E43  00F5               	movwf	??_mostrar_Display+1
  2891                           
  2892                           ; Switch on 2 bytes has been partitioned into a top level switch of size 1, and 1 sub-sw
      +                          itches
  2893                           ; Switch size 1, requested type "simple"
  2894                           ; Number of cases is 1, Range of values is 0 to 0
  2895                           ; switch strategies available:
  2896                           ; Name         Instructions Cycles
  2897                           ; simple_byte            4     3 (average)
  2898                           ; direct_byte            8     6 (fixed)
  2899                           ; jumptable            260     6 (fixed)
  2900                           ;	Chosen strategy is simple_byte
  2901     0E44  0875               	movf	??_mostrar_Display+1,w
  2902     0E45  3A00               	xorlw	0	; case 0
  2903     0E46  1903               	skipnz
  2904     0E47  2E49               	goto	l2984
  2905     0E48  2E34               	goto	l2834
  2906     0E49                     l2984:
  2907                           
  2908                           ; Switch size 1, requested type "simple"
  2909                           ; Number of cases is 3, Range of values is 0 to 2
  2910                           ; switch strategies available:
  2911                           ; Name         Instructions Cycles
  2912                           ; simple_byte           10     6 (average)
  2913                           ; direct_byte           12     6 (fixed)
  2914                           ; jumptable            260     6 (fixed)
  2915                           ;	Chosen strategy is simple_byte
  2916     0E49  0874               	movf	??_mostrar_Display,w
  2917     0E4A  3A00               	xorlw	0	; case 0
  2918     0E4B  1903               	skipnz
  2919     0E4C  2DDA               	goto	l501
  2920     0E4D  3A01               	xorlw	1	; case 1
  2921     0E4E  1903               	skipnz
  2922     0E4F  2DF8               	goto	l509
  2923     0E50  3A03               	xorlw	3	; case 2
  2924     0E51  1903               	skipnz
  2925     0E52  2E16               	goto	l516
  2926     0E53  2E34               	goto	l2834
  2927     0E54                     l523:
  2928     0E54  0008               	return
  2929     0E55                     __end_of_mostrar_Display:
  2930                           
  2931                           	psect	text3
  2932     0ED5                     __ptext3:	
  2933 ;; *************** function _Prender_seg *****************
  2934 ;; Defined at:
  2935 ;;		line 44 in file "nuestrodisplay.c"
  2936 ;; Parameters:    Size  Location     Type
  2937 ;;  caracter        2    0[COMMON] unsigned int 
  2938 ;; Auto vars:     Size  Location     Type
  2939 ;;		None
  2940 ;; Return value:  Size  Location     Type
  2941 ;;                  1    wreg      void 
  2942 ;; Registers used:
  2943 ;;		wreg, fsr0l, fsr0h, status,2, status,0
  2944 ;; Tracked objects:
  2945 ;;		On entry : 0/0
  2946 ;;		On exit  : 0/0
  2947 ;;		Unchanged: 0/0
  2948 ;; Data sizes:     COMMON   BANK0   BANK1   BANK2   BANK3   BANK4
  2949 ;;      Params:         2       0       0       0       0       0
  2950 ;;      Locals:         0       0       0       0       0       0
  2951 ;;      Temps:          0       0       0       0       0       0
  2952 ;;      Totals:         2       0       0       0       0       0
  2953 ;;Total ram usage:        2 bytes
  2954 ;; Hardware stack levels used: 1
  2955 ;; This function calls:
  2956 ;;		Nothing
  2957 ;; This function is called by:
  2958 ;;		_mostrar_Display
  2959 ;; This function uses a non-reentrant model
  2960 ;;
  2961                           
  2962     0ED5                     _Prender_seg:	
  2963                           ;psect for function _Prender_seg
  2964                           
  2965     0ED5                     l2358:	
  2966                           ;incstack = 0
  2967                           ; Regs used in _Prender_seg: [wreg-fsr0h+status,2+status,0]
  2968                           
  2969                           
  2970                           ;nuestrodisplay.c: 46:     switch(caracter){
  2971     0ED5  2F30               	goto	l2362
  2972     0ED6                     l346:	
  2973                           ;nuestrodisplay.c: 48:         do { LATAbits.LATA1 = 1; } while(0);
  2974                           
  2975     0ED6  0022               	movlb	2	; select bank2
  2976     0ED7  148C               	bsf	12,1	;volatile
  2977     0ED8                     l348:	
  2978                           ;nuestrodisplay.c: 49:         do { LATAbits.LATA2 = 1; } while(0);
  2979                           
  2980     0ED8  150C               	bsf	12,2	;volatile
  2981     0ED9                     l350:	
  2982                           ;nuestrodisplay.c: 50:         do { LATAbits.LATA3 = 1; } while(0);
  2983                           
  2984     0ED9  158C               	bsf	12,3	;volatile
  2985     0EDA                     l352:	
  2986                           ;nuestrodisplay.c: 51:         do { LATAbits.LATA4 = 1; } while(0);
  2987                           
  2988     0EDA  160C               	bsf	12,4	;volatile
  2989     0EDB                     l354:	
  2990                           ;nuestrodisplay.c: 52:         do { LATAbits.LATA6 = 1; } while(0);
  2991                           
  2992     0EDB  170C               	bsf	12,6	;volatile
  2993     0EDC                     l356:	
  2994                           ;nuestrodisplay.c: 53:         do { LATAbits.LATA7 = 1; } while(0);
  2995                           
  2996     0EDC  178C               	bsf	12,7	;volatile
  2997     0EDD                     l358:	
  2998                           ;nuestrodisplay.c: 54:         do { LATBbits.LATB0 = 0; } while(0);
  2999                           
  3000     0EDD  100D               	bcf	13,0	;volatile
  3001     0EDE  2F55               	goto	l496
  3002     0EDF                     l362:	
  3003                           ;nuestrodisplay.c: 58:         do { LATAbits.LATA1 = 0; } while(0);
  3004                           
  3005     0EDF  0022               	movlb	2	; select bank2
  3006     0EE0  108C               	bcf	12,1	;volatile
  3007     0EE1                     l364:	
  3008                           ;nuestrodisplay.c: 59:         do { LATAbits.LATA2 = 1; } while(0);
  3009                           
  3010     0EE1  150C               	bsf	12,2	;volatile
  3011     0EE2                     l366:	
  3012                           ;nuestrodisplay.c: 60:         do { LATAbits.LATA3 = 1; } while(0);
  3013                           
  3014     0EE2  158C               	bsf	12,3	;volatile
  3015     0EE3                     l368:	
  3016                           ;nuestrodisplay.c: 61:         do { LATAbits.LATA4 = 0; } while(0);
  3017                           
  3018     0EE3  120C               	bcf	12,4	;volatile
  3019     0EE4                     l370:	
  3020                           ;nuestrodisplay.c: 62:         do { LATAbits.LATA6 = 0; } while(0);
  3021                           
  3022     0EE4  130C               	bcf	12,6	;volatile
  3023     0EE5                     l372:	
  3024                           ;nuestrodisplay.c: 63:         do { LATAbits.LATA7 = 0; } while(0);
  3025                           
  3026     0EE5  138C               	bcf	12,7	;volatile
  3027     0EE6                     l374:	
  3028                           ;nuestrodisplay.c: 64:         do { LATBbits.LATB0 = 0; } while(0);
  3029                           
  3030     0EE6  100D               	bcf	13,0	;volatile
  3031     0EE7  2F55               	goto	l496
  3032     0EE8                     l377:	
  3033                           ;nuestrodisplay.c: 69:         do { LATAbits.LATA1 = 1; } while(0);
  3034                           
  3035     0EE8  0022               	movlb	2	; select bank2
  3036     0EE9  148C               	bsf	12,1	;volatile
  3037     0EEA                     l379:	
  3038                           ;nuestrodisplay.c: 70:         do { LATAbits.LATA2 = 1; } while(0);
  3039                           
  3040     0EEA  150C               	bsf	12,2	;volatile
  3041     0EEB                     l381:	
  3042                           ;nuestrodisplay.c: 71:         do { LATAbits.LATA3 = 0; } while(0);
  3043                           
  3044     0EEB  118C               	bcf	12,3	;volatile
  3045     0EEC                     l383:	
  3046                           ;nuestrodisplay.c: 72:         do { LATAbits.LATA4 = 1; } while(0);
  3047                           
  3048     0EEC  160C               	bsf	12,4	;volatile
  3049     0EED                     l385:	
  3050                           ;nuestrodisplay.c: 73:         do { LATAbits.LATA6 = 1; } while(0);
  3051                           
  3052     0EED  170C               	bsf	12,6	;volatile
  3053     0EEE                     l387:	
  3054                           ;nuestrodisplay.c: 74:         do { LATAbits.LATA7 = 0; } while(0);
  3055                           
  3056     0EEE  138C               	bcf	12,7	;volatile
  3057     0EEF                     l389:	
  3058                           ;nuestrodisplay.c: 75:         do { LATBbits.LATB0 = 1; } while(0);
  3059                           
  3060     0EEF  140D               	bsf	13,0	;volatile
  3061     0EF0  2F55               	goto	l496
  3062     0EF1                     l392:	
  3063                           ;nuestrodisplay.c: 80:         do { LATAbits.LATA1 = 1; } while(0);
  3064                           
  3065     0EF1  0022               	movlb	2	; select bank2
  3066     0EF2  148C               	bsf	12,1	;volatile
  3067     0EF3                     l394:	
  3068                           ;nuestrodisplay.c: 81:         do { LATAbits.LATA2 = 1; } while(0);
  3069                           
  3070     0EF3  150C               	bsf	12,2	;volatile
  3071     0EF4                     l396:	
  3072                           ;nuestrodisplay.c: 82:         do { LATAbits.LATA3 = 1; } while(0);
  3073                           
  3074     0EF4  158C               	bsf	12,3	;volatile
  3075     0EF5                     l398:	
  3076                           ;nuestrodisplay.c: 83:         do { LATAbits.LATA4 = 1; } while(0);
  3077                           
  3078     0EF5  160C               	bsf	12,4	;volatile
  3079     0EF6                     l400:	
  3080                           ;nuestrodisplay.c: 84:         do { LATAbits.LATA6 = 0; } while(0);
  3081                           
  3082     0EF6  130C               	bcf	12,6	;volatile
  3083     0EF7                     l402:	
  3084                           ;nuestrodisplay.c: 85:         do { LATAbits.LATA7 = 0; } while(0);
  3085                           
  3086     0EF7  138C               	bcf	12,7	;volatile
  3087     0EF8                     l404:	
  3088                           ;nuestrodisplay.c: 86:         do { LATBbits.LATB0 = 1; } while(0);
  3089                           
  3090     0EF8  140D               	bsf	13,0	;volatile
  3091     0EF9  2F55               	goto	l496
  3092     0EFA                     l407:	
  3093                           ;nuestrodisplay.c: 91:         do { LATAbits.LATA1 = 0; } while(0);
  3094                           
  3095     0EFA  0022               	movlb	2	; select bank2
  3096     0EFB  108C               	bcf	12,1	;volatile
  3097     0EFC                     l409:	
  3098                           ;nuestrodisplay.c: 92:         do { LATAbits.LATA2 = 1; } while(0);
  3099                           
  3100     0EFC  150C               	bsf	12,2	;volatile
  3101     0EFD                     l411:	
  3102                           ;nuestrodisplay.c: 93:         do { LATAbits.LATA3 = 1; } while(0);
  3103                           
  3104     0EFD  158C               	bsf	12,3	;volatile
  3105     0EFE                     l413:	
  3106                           ;nuestrodisplay.c: 94:         do { LATAbits.LATA4 = 0; } while(0);
  3107                           
  3108     0EFE  120C               	bcf	12,4	;volatile
  3109     0EFF                     l415:	
  3110                           ;nuestrodisplay.c: 95:         do { LATAbits.LATA6 = 0; } while(0);
  3111                           
  3112     0EFF  130C               	bcf	12,6	;volatile
  3113     0F00                     l417:	
  3114                           ;nuestrodisplay.c: 96:         do { LATAbits.LATA7 = 1; } while(0);
  3115                           
  3116     0F00  178C               	bsf	12,7	;volatile
  3117     0F01                     l419:	
  3118                           ;nuestrodisplay.c: 97:         do { LATBbits.LATB0 = 1; } while(0);
  3119                           
  3120     0F01  140D               	bsf	13,0	;volatile
  3121     0F02  2F55               	goto	l496
  3122     0F03                     l422:	
  3123                           ;nuestrodisplay.c: 102:         do { LATAbits.LATA1 = 1; } while(0);
  3124                           
  3125     0F03  0022               	movlb	2	; select bank2
  3126     0F04  148C               	bsf	12,1	;volatile
  3127     0F05                     l424:	
  3128                           ;nuestrodisplay.c: 103:         do { LATAbits.LATA2 = 0; } while(0);
  3129                           
  3130     0F05  110C               	bcf	12,2	;volatile
  3131     0F06                     l426:	
  3132                           ;nuestrodisplay.c: 104:         do { LATAbits.LATA3 = 1; } while(0);
  3133                           
  3134     0F06  158C               	bsf	12,3	;volatile
  3135     0F07                     l428:	
  3136                           ;nuestrodisplay.c: 105:         do { LATAbits.LATA4 = 1; } while(0);
  3137                           
  3138     0F07  160C               	bsf	12,4	;volatile
  3139     0F08                     l430:	
  3140                           ;nuestrodisplay.c: 106:         do { LATAbits.LATA6 = 0; } while(0);
  3141                           
  3142     0F08  130C               	bcf	12,6	;volatile
  3143     0F09                     l432:	
  3144                           ;nuestrodisplay.c: 107:         do { LATAbits.LATA7 = 1; } while(0);
  3145                           
  3146     0F09  178C               	bsf	12,7	;volatile
  3147     0F0A                     l434:	
  3148                           ;nuestrodisplay.c: 108:         do { LATBbits.LATB0 = 1; } while(0);
  3149                           
  3150     0F0A  140D               	bsf	13,0	;volatile
  3151     0F0B  2F55               	goto	l496
  3152     0F0C                     l437:	
  3153                           ;nuestrodisplay.c: 113:         do { LATAbits.LATA1 = 1; } while(0);
  3154                           
  3155     0F0C  0022               	movlb	2	; select bank2
  3156     0F0D  148C               	bsf	12,1	;volatile
  3157     0F0E                     l439:	
  3158                           ;nuestrodisplay.c: 114:         do { LATAbits.LATA2 = 0; } while(0);
  3159                           
  3160     0F0E  110C               	bcf	12,2	;volatile
  3161     0F0F                     l441:	
  3162                           ;nuestrodisplay.c: 115:         do { LATAbits.LATA3 = 1; } while(0);
  3163                           
  3164     0F0F  158C               	bsf	12,3	;volatile
  3165     0F10                     l443:	
  3166                           ;nuestrodisplay.c: 116:         do { LATAbits.LATA4 = 1; } while(0);
  3167                           
  3168     0F10  160C               	bsf	12,4	;volatile
  3169     0F11                     l445:	
  3170                           ;nuestrodisplay.c: 117:         do { LATAbits.LATA6 = 1; } while(0);
  3171                           
  3172     0F11  170C               	bsf	12,6	;volatile
  3173     0F12                     l447:	
  3174                           ;nuestrodisplay.c: 118:         do { LATAbits.LATA7 = 1; } while(0);
  3175                           
  3176     0F12  178C               	bsf	12,7	;volatile
  3177     0F13                     l449:	
  3178                           ;nuestrodisplay.c: 119:         do { LATBbits.LATB0 = 1; } while(0);
  3179                           
  3180     0F13  140D               	bsf	13,0	;volatile
  3181     0F14  2F55               	goto	l496
  3182     0F15                     l452:	
  3183                           ;nuestrodisplay.c: 124:         do { LATAbits.LATA1 = 1; } while(0);
  3184                           
  3185     0F15  0022               	movlb	2	; select bank2
  3186     0F16  148C               	bsf	12,1	;volatile
  3187     0F17                     l454:	
  3188                           ;nuestrodisplay.c: 125:         do { LATAbits.LATA2 = 1; } while(0);
  3189                           
  3190     0F17  150C               	bsf	12,2	;volatile
  3191     0F18                     l456:	
  3192                           ;nuestrodisplay.c: 126:         do { LATAbits.LATA3 = 1; } while(0);
  3193                           
  3194     0F18  158C               	bsf	12,3	;volatile
  3195     0F19                     l458:	
  3196                           ;nuestrodisplay.c: 127:         do { LATAbits.LATA4 = 0; } while(0);
  3197                           
  3198     0F19  120C               	bcf	12,4	;volatile
  3199     0F1A                     l460:	
  3200                           ;nuestrodisplay.c: 128:         do { LATAbits.LATA6 = 0; } while(0);
  3201                           
  3202     0F1A  130C               	bcf	12,6	;volatile
  3203     0F1B                     l462:	
  3204                           ;nuestrodisplay.c: 129:         do { LATAbits.LATA7 = 0; } while(0);
  3205                           
  3206     0F1B  138C               	bcf	12,7	;volatile
  3207     0F1C                     l464:	
  3208                           ;nuestrodisplay.c: 130:         do { LATBbits.LATB0 = 0; } while(0);
  3209                           
  3210     0F1C  100D               	bcf	13,0	;volatile
  3211     0F1D  2F55               	goto	l496
  3212     0F1E                     l467:	
  3213                           ;nuestrodisplay.c: 135:         do { LATAbits.LATA1 = 1; } while(0);
  3214                           
  3215     0F1E  0022               	movlb	2	; select bank2
  3216     0F1F  148C               	bsf	12,1	;volatile
  3217     0F20                     l469:	
  3218                           ;nuestrodisplay.c: 136:         do { LATAbits.LATA2 = 1; } while(0);
  3219                           
  3220     0F20  150C               	bsf	12,2	;volatile
  3221     0F21                     l471:	
  3222                           ;nuestrodisplay.c: 137:         do { LATAbits.LATA3 = 1; } while(0);
  3223                           
  3224     0F21  158C               	bsf	12,3	;volatile
  3225     0F22                     l473:	
  3226                           ;nuestrodisplay.c: 138:         do { LATAbits.LATA4 = 1; } while(0);
  3227                           
  3228     0F22  160C               	bsf	12,4	;volatile
  3229     0F23                     l475:	
  3230                           ;nuestrodisplay.c: 139:         do { LATAbits.LATA6 = 1; } while(0);
  3231                           
  3232     0F23  170C               	bsf	12,6	;volatile
  3233     0F24                     l477:	
  3234                           ;nuestrodisplay.c: 140:         do { LATAbits.LATA7 = 1; } while(0);
  3235                           
  3236     0F24  178C               	bsf	12,7	;volatile
  3237     0F25                     l479:	
  3238                           ;nuestrodisplay.c: 141:         do { LATBbits.LATB0 = 1; } while(0);
  3239                           
  3240     0F25  140D               	bsf	13,0	;volatile
  3241     0F26  2F55               	goto	l496
  3242     0F27                     l482:	
  3243                           ;nuestrodisplay.c: 146:         do { LATAbits.LATA1 = 1; } while(0);
  3244                           
  3245     0F27  0022               	movlb	2	; select bank2
  3246     0F28  148C               	bsf	12,1	;volatile
  3247     0F29                     l484:	
  3248                           ;nuestrodisplay.c: 147:         do { LATAbits.LATA2 = 1; } while(0);
  3249                           
  3250     0F29  150C               	bsf	12,2	;volatile
  3251     0F2A                     l486:	
  3252                           ;nuestrodisplay.c: 148:         do { LATAbits.LATA3 = 1; } while(0);
  3253                           
  3254     0F2A  158C               	bsf	12,3	;volatile
  3255     0F2B                     l488:	
  3256                           ;nuestrodisplay.c: 149:         do { LATAbits.LATA4 = 1; } while(0);
  3257                           
  3258     0F2B  160C               	bsf	12,4	;volatile
  3259     0F2C                     l490:	
  3260                           ;nuestrodisplay.c: 150:         do { LATAbits.LATA6 = 0; } while(0);
  3261                           
  3262     0F2C  130C               	bcf	12,6	;volatile
  3263     0F2D                     l492:	
  3264                           ;nuestrodisplay.c: 151:         do { LATAbits.LATA7 = 1; } while(0);
  3265                           
  3266     0F2D  178C               	bsf	12,7	;volatile
  3267     0F2E                     l494:	
  3268                           ;nuestrodisplay.c: 152:         do { LATBbits.LATB0 = 1; } while(0);
  3269                           
  3270     0F2E  140D               	bsf	13,0	;volatile
  3271     0F2F  2F55               	goto	l496
  3272     0F30                     l2362:
  3273                           
  3274                           ; Switch on 2 bytes has been partitioned into a top level switch of size 1, and 1 sub-sw
      +                          itches
  3275                           ; Switch size 1, requested type "simple"
  3276                           ; Number of cases is 1, Range of values is 0 to 0
  3277                           ; switch strategies available:
  3278                           ; Name         Instructions Cycles
  3279                           ; simple_byte            4     3 (average)
  3280                           ; direct_byte            8     6 (fixed)
  3281                           ; jumptable            260     6 (fixed)
  3282                           ;	Chosen strategy is simple_byte
  3283     0F30  0871               	movf	Prender_seg@caracter+1,w
  3284     0F31  3A00               	xorlw	0	; case 0
  3285     0F32  1903               	skipnz
  3286     0F33  2F35               	goto	l2986
  3287     0F34  2F55               	goto	l496
  3288     0F35                     l2986:
  3289                           
  3290                           ; Switch size 1, requested type "simple"
  3291                           ; Number of cases is 10, Range of values is 0 to 9
  3292                           ; switch strategies available:
  3293                           ; Name         Instructions Cycles
  3294                           ; direct_byte           26     6 (fixed)
  3295                           ; simple_byte           31    16 (average)
  3296                           ; jumptable            260     6 (fixed)
  3297                           ;	Chosen strategy is simple_byte
  3298     0F35  0870               	movf	Prender_seg@caracter,w
  3299     0F36  3A00               	xorlw	0	; case 0
  3300     0F37  1903               	skipnz
  3301     0F38  2ED6               	goto	l346
  3302     0F39  3A01               	xorlw	1	; case 1
  3303     0F3A  1903               	skipnz
  3304     0F3B  2EDF               	goto	l362
  3305     0F3C  3A03               	xorlw	3	; case 2
  3306     0F3D  1903               	skipnz
  3307     0F3E  2EE8               	goto	l377
  3308     0F3F  3A01               	xorlw	1	; case 3
  3309     0F40  1903               	skipnz
  3310     0F41  2EF1               	goto	l392
  3311     0F42  3A07               	xorlw	7	; case 4
  3312     0F43  1903               	skipnz
  3313     0F44  2EFA               	goto	l407
  3314     0F45  3A01               	xorlw	1	; case 5
  3315     0F46  1903               	skipnz
  3316     0F47  2F03               	goto	l422
  3317     0F48  3A03               	xorlw	3	; case 6
  3318     0F49  1903               	skipnz
  3319     0F4A  2F0C               	goto	l437
  3320     0F4B  3A01               	xorlw	1	; case 7
  3321     0F4C  1903               	skipnz
  3322     0F4D  2F15               	goto	l452
  3323     0F4E  3A0F               	xorlw	15	; case 8
  3324     0F4F  1903               	skipnz
  3325     0F50  2F1E               	goto	l467
  3326     0F51  3A01               	xorlw	1	; case 9
  3327     0F52  1903               	skipnz
  3328     0F53  2F27               	goto	l482
  3329     0F54  2F55               	goto	l496
  3330     0F55                     l496:
  3331     0F55  0008               	return
  3332     0F56                     __end_of_Prender_seg:
  3333                           
  3334                           	psect	text4
  3335     0028                     __ptext4:	
  3336 ;; *************** function _llenar_registros_del_Serial *****************
  3337 ;; Defined at:
  3338 ;;		line 21 in file "nuestroserial.c"
  3339 ;; Parameters:    Size  Location     Type
  3340 ;;  ser             1    wreg     PTR struct Sr_Serial
  3341 ;;		 -> main@miserial(10), 
  3342 ;;  Dig1            1    0[COMMON] unsigned char 
  3343 ;;  Dig2            1    1[COMMON] unsigned char 
  3344 ;;  Dig3            1    2[COMMON] unsigned char 
  3345 ;; Auto vars:     Size  Location     Type
  3346 ;;  ser             1    3[COMMON] PTR struct Sr_Serial
  3347 ;;		 -> main@miserial(10), 
  3348 ;; Return value:  Size  Location     Type
  3349 ;;                  1    wreg      void 
  3350 ;; Registers used:
  3351 ;;		wreg, fsr0l, fsr0h, fsr1l, fsr1h, status,2, status,0
  3352 ;; Tracked objects:
  3353 ;;		On entry : 0/0
  3354 ;;		On exit  : 0/0
  3355 ;;		Unchanged: 0/0
  3356 ;; Data sizes:     COMMON   BANK0   BANK1   BANK2   BANK3   BANK4
  3357 ;;      Params:         3       0       0       0       0       0
  3358 ;;      Locals:         1       0       0       0       0       0
  3359 ;;      Temps:          0       0       0       0       0       0
  3360 ;;      Totals:         4       0       0       0       0       0
  3361 ;;Total ram usage:        4 bytes
  3362 ;; Hardware stack levels used: 1
  3363 ;; This function calls:
  3364 ;;		Nothing
  3365 ;; This function is called by:
  3366 ;;		_main
  3367 ;; This function uses a non-reentrant model
  3368 ;;
  3369                           
  3370     0028                     _llenar_registros_del_Serial:	
  3371                           ;psect for function _llenar_registros_del_Serial
  3372                           
  3373                           
  3374                           ;incstack = 0
  3375                           ; Regs used in _llenar_registros_del_Serial: [wreg-fsr1h+status,2+status,0]
  3376                           ;llenar_registros_del_Serial@ser stored from wreg
  3377     0028  00F3               	movwf	llenar_registros_del_Serial@ser
  3378     0029                     l2870:
  3379                           
  3380                           ;nuestroserial.c: 23:     ser->Valor1 = Dig1;
  3381     0029  0873               	movf	llenar_registros_del_Serial@ser,w
  3382     002A  3E07               	addlw	7
  3383     002B  0086               	movwf	6
  3384     002C  0187               	clrf	7
  3385     002D  0870               	movf	llenar_registros_del_Serial@Dig1,w
  3386     002E  0081               	movwf	1
  3387                           
  3388                           ;nuestroserial.c: 24:     ser->Valor2 = Dig2;
  3389     002F  0873               	movf	llenar_registros_del_Serial@ser,w
  3390     0030  3E08               	addlw	8
  3391     0031  0086               	movwf	6
  3392     0032  0187               	clrf	7
  3393     0033  0871               	movf	llenar_registros_del_Serial@Dig2,w
  3394     0034  0081               	movwf	1
  3395                           
  3396                           ;nuestroserial.c: 25:     ser->Valor3 = Dig3;
  3397     0035  0873               	movf	llenar_registros_del_Serial@ser,w
  3398     0036  3E09               	addlw	9
  3399     0037  0086               	movwf	6
  3400     0038  0187               	clrf	7
  3401     0039  0872               	movf	llenar_registros_del_Serial@Dig3,w
  3402     003A  0081               	movwf	1
  3403     003B                     l2872:
  3404                           
  3405                           ;nuestroserial.c: 27:     ser->datosaenviar[0]= ser->Valor1 + 48;
  3406     003B  0873               	movf	llenar_registros_del_Serial@ser,w
  3407     003C  0086               	movwf	6
  3408     003D  0187               	clrf	7
  3409     003E  0873               	movf	llenar_registros_del_Serial@ser,w
  3410     003F  3E07               	addlw	7
  3411     0040  0084               	movwf	4
  3412     0041  0185               	clrf	5
  3413     0042  0800               	movf	0,w
  3414     0043  3E30               	addlw	48
  3415     0044  0081               	movwf	1
  3416     0045                     l2874:
  3417                           
  3418                           ;nuestroserial.c: 28:     ser->datosaenviar[1]= 46;
  3419     0045  0A73               	incf	llenar_registros_del_Serial@ser,w
  3420     0046  0086               	movwf	6
  3421     0047  0187               	clrf	7
  3422     0048  302E               	movlw	46
  3423     0049  0081               	movwf	1
  3424     004A                     l2876:
  3425                           
  3426                           ;nuestroserial.c: 29:     ser->datosaenviar[2]= ser->Valor2 + 48;
  3427     004A  0873               	movf	llenar_registros_del_Serial@ser,w
  3428     004B  3E02               	addlw	2
  3429     004C  0086               	movwf	6
  3430     004D  0187               	clrf	7
  3431     004E  0873               	movf	llenar_registros_del_Serial@ser,w
  3432     004F  3E08               	addlw	8
  3433     0050  0084               	movwf	4
  3434     0051  0185               	clrf	5
  3435     0052  0800               	movf	0,w
  3436     0053  3E30               	addlw	48
  3437     0054  0081               	movwf	1
  3438     0055                     l2878:
  3439                           
  3440                           ;nuestroserial.c: 30:     ser->datosaenviar[3]= ser->Valor3 + 48;
  3441     0055  0873               	movf	llenar_registros_del_Serial@ser,w
  3442     0056  3E03               	addlw	3
  3443     0057  0086               	movwf	6
  3444     0058  0187               	clrf	7
  3445     0059  0873               	movf	llenar_registros_del_Serial@ser,w
  3446     005A  3E09               	addlw	9
  3447     005B  0084               	movwf	4
  3448     005C  0185               	clrf	5
  3449     005D  0800               	movf	0,w
  3450     005E  3E30               	addlw	48
  3451     005F  0081               	movwf	1
  3452     0060                     l2880:
  3453                           
  3454                           ;nuestroserial.c: 31:     ser->datosaenviar[4]= 13;
  3455     0060  0873               	movf	llenar_registros_del_Serial@ser,w
  3456     0061  3E04               	addlw	4
  3457     0062  0086               	movwf	6
  3458     0063  0187               	clrf	7
  3459     0064  300D               	movlw	13
  3460     0065  0081               	movwf	1
  3461     0066                     l2882:
  3462                           
  3463                           ;nuestroserial.c: 32:     ser->datosaenviar[5]= 10;
  3464     0066  0873               	movf	llenar_registros_del_Serial@ser,w
  3465     0067  3E05               	addlw	5
  3466     0068  0086               	movwf	6
  3467     0069  0187               	clrf	7
  3468     006A  300A               	movlw	10
  3469     006B  0081               	movwf	1
  3470     006C                     l2884:
  3471                           
  3472                           ;nuestroserial.c: 33:     ser->contador=0;
  3473     006C  0873               	movf	llenar_registros_del_Serial@ser,w
  3474     006D  3E06               	addlw	6
  3475     006E  0086               	movwf	6
  3476     006F  0187               	clrf	7
  3477     0070  0181               	clrf	1
  3478     0071                     l537:
  3479     0071  0008               	return
  3480     0072                     __end_of_llenar_registros_del_Serial:
  3481                           
  3482                           	psect	text5
  3483     0CF7                     __ptext5:	
  3484 ;; *************** function _inicializar_nuestroserial *****************
  3485 ;; Defined at:
  3486 ;;		line 10 in file "nuestroserial.c"
  3487 ;; Parameters:    Size  Location     Type
  3488 ;;  ser             1    wreg     PTR struct Sr_Serial
  3489 ;;		 -> main@miserial(10), 
  3490 ;; Auto vars:     Size  Location     Type
  3491 ;;  ser             1    1[COMMON] PTR struct Sr_Serial
  3492 ;;		 -> main@miserial(10), 
  3493 ;; Return value:  Size  Location     Type
  3494 ;;                  1    wreg      void 
  3495 ;; Registers used:
  3496 ;;		wreg, fsr1l, fsr1h, status,2, status,0
  3497 ;; Tracked objects:
  3498 ;;		On entry : 0/0
  3499 ;;		On exit  : 0/0
  3500 ;;		Unchanged: 0/0
  3501 ;; Data sizes:     COMMON   BANK0   BANK1   BANK2   BANK3   BANK4
  3502 ;;      Params:         0       0       0       0       0       0
  3503 ;;      Locals:         1       0       0       0       0       0
  3504 ;;      Temps:          1       0       0       0       0       0
  3505 ;;      Totals:         2       0       0       0       0       0
  3506 ;;Total ram usage:        2 bytes
  3507 ;; Hardware stack levels used: 1
  3508 ;; This function calls:
  3509 ;;		Nothing
  3510 ;; This function is called by:
  3511 ;;		_main
  3512 ;; This function uses a non-reentrant model
  3513 ;;
  3514                           
  3515     0CF7                     _inicializar_nuestroserial:	
  3516                           ;psect for function _inicializar_nuestroserial
  3517                           
  3518                           
  3519                           ;incstack = 0
  3520                           ; Regs used in _inicializar_nuestroserial: [wreg+fsr1l+fsr1h+status,2+status,0]
  3521                           ;inicializar_nuestroserial@ser stored from wreg
  3522     0CF7  00F1               	movwf	inicializar_nuestroserial@ser
  3523     0CF8                     l2770:
  3524                           
  3525                           ;nuestroserial.c: 11:     for (ser->contador=0;ser->contador<6;ser->contador++){
  3526     0CF8  0871               	movf	inicializar_nuestroserial@ser,w
  3527     0CF9  3E06               	addlw	6
  3528     0CFA  0086               	movwf	6
  3529     0CFB  0187               	clrf	7
  3530     0CFC  0181               	clrf	1
  3531     0CFD  2D12               	goto	l528
  3532     0CFE                     l2772:
  3533                           
  3534                           ;nuestroserial.c: 12:         ser->datosaenviar[ser->contador]=48;
  3535     0CFE  0871               	movf	inicializar_nuestroserial@ser,w
  3536     0CFF  3E06               	addlw	6
  3537     0D00  0086               	movwf	6
  3538     0D01  0187               	clrf	7
  3539     0D02  0801               	movf	1,w
  3540     0D03  0771               	addwf	inicializar_nuestroserial@ser,w
  3541     0D04  00F0               	movwf	??_inicializar_nuestroserial
  3542     0D05  0870               	movf	??_inicializar_nuestroserial,w
  3543     0D06  0086               	movwf	6
  3544     0D07  0187               	clrf	7
  3545     0D08  3030               	movlw	48
  3546     0D09  0081               	movwf	1
  3547                           
  3548                           ;nuestroserial.c: 13:     }
  3549     0D0A  3001               	movlw	1
  3550     0D0B  00F0               	movwf	??_inicializar_nuestroserial
  3551     0D0C  0871               	movf	inicializar_nuestroserial@ser,w
  3552     0D0D  3E06               	addlw	6
  3553     0D0E  0086               	movwf	6
  3554     0D0F  0187               	clrf	7
  3555     0D10  0870               	movf	??_inicializar_nuestroserial,w
  3556     0D11  0781               	addwf	1,f
  3557     0D12                     l528:
  3558     0D12  0871               	movf	inicializar_nuestroserial@ser,w
  3559     0D13  3E06               	addlw	6
  3560     0D14  0086               	movwf	6
  3561     0D15  0187               	clrf	7
  3562     0D16  3006               	movlw	6
  3563     0D17  0201               	subwf	1,w
  3564     0D18  1C03               	skipc
  3565     0D19  2D1B               	goto	u2771
  3566     0D1A  2D1C               	goto	u2770
  3567     0D1B                     u2771:
  3568     0D1B  2CFE               	goto	l2772
  3569     0D1C                     u2770:
  3570     0D1C                     l531:
  3571     0D1C  0008               	return
  3572     0D1D                     __end_of_inicializar_nuestroserial:
  3573                           
  3574                           	psect	text6
  3575     0CB4                     __ptext6:	
  3576 ;; *************** function _inicializar_nuestro_Display *****************
  3577 ;; Defined at:
  3578 ;;		line 10 in file "nuestrodisplay.c"
  3579 ;; Parameters:    Size  Location     Type
  3580 ;;  dis             1    wreg     PTR struct Ds_Display
  3581 ;;		 -> main@miDisplay(5), 
  3582 ;; Auto vars:     Size  Location     Type
  3583 ;;  dis             1    0[COMMON] PTR struct Ds_Display
  3584 ;;		 -> main@miDisplay(5), 
  3585 ;; Return value:  Size  Location     Type
  3586 ;;                  1    wreg      void 
  3587 ;; Registers used:
  3588 ;;		wreg, fsr1l, fsr1h, status,2, status,0
  3589 ;; Tracked objects:
  3590 ;;		On entry : 0/0
  3591 ;;		On exit  : 0/0
  3592 ;;		Unchanged: 0/0
  3593 ;; Data sizes:     COMMON   BANK0   BANK1   BANK2   BANK3   BANK4
  3594 ;;      Params:         0       0       0       0       0       0
  3595 ;;      Locals:         1       0       0       0       0       0
  3596 ;;      Temps:          0       0       0       0       0       0
  3597 ;;      Totals:         1       0       0       0       0       0
  3598 ;;Total ram usage:        1 bytes
  3599 ;; Hardware stack levels used: 1
  3600 ;; This function calls:
  3601 ;;		Nothing
  3602 ;; This function is called by:
  3603 ;;		_main
  3604 ;; This function uses a non-reentrant model
  3605 ;;
  3606                           
  3607     0CB4                     _inicializar_nuestro_Display:	
  3608                           ;psect for function _inicializar_nuestro_Display
  3609                           
  3610                           
  3611                           ;incstack = 0
  3612                           ; Regs used in _inicializar_nuestro_Display: [wreg+fsr1l+fsr1h+status,2+status,0]
  3613                           ;inicializar_nuestro_Display@dis stored from wreg
  3614     0CB4  00F0               	movwf	inicializar_nuestro_Display@dis
  3615     0CB5                     l2774:
  3616                           
  3617                           ;nuestrodisplay.c: 11:     dis->Digito1=0;
  3618     0CB5  0870               	movf	inicializar_nuestro_Display@dis,w
  3619     0CB6  0086               	movwf	6
  3620     0CB7  0187               	clrf	7
  3621     0CB8  0181               	clrf	1
  3622                           
  3623                           ;nuestrodisplay.c: 12:     dis-> Digito2=0;
  3624     0CB9  0A70               	incf	inicializar_nuestro_Display@dis,w
  3625     0CBA  0086               	movwf	6
  3626     0CBB  0187               	clrf	7
  3627     0CBC  0181               	clrf	1
  3628     0CBD                     l2776:
  3629                           
  3630                           ;nuestrodisplay.c: 13:     dis-> Digito3=0;
  3631     0CBD  0870               	movf	inicializar_nuestro_Display@dis,w
  3632     0CBE  3E02               	addlw	2
  3633     0CBF  0086               	movwf	6
  3634     0CC0  0187               	clrf	7
  3635     0CC1  0181               	clrf	1
  3636     0CC2                     l2778:
  3637                           
  3638                           ;nuestrodisplay.c: 14:     dis-> estado=0;
  3639     0CC2  0870               	movf	inicializar_nuestro_Display@dis,w
  3640     0CC3  3E03               	addlw	3
  3641     0CC4  0086               	movwf	6
  3642     0CC5  0187               	clrf	7
  3643     0CC6  3000               	movlw	0
  3644     0CC7  3FC0               	movwi [0]fsr1
  3645     0CC8  3FC1               	movwi [1]fsr1
  3646     0CC9                     l2780:
  3647     0CC9  0022               	movlb	2	; select bank2
  3648     0CCA  118D               	bcf	13,3	;volatile
  3649     0CCB                     l2782:
  3650     0CCB  120D               	bcf	13,4	;volatile
  3651     0CCC                     l2784:
  3652     0CCC  128D               	bcf	13,5	;volatile
  3653     0CCD                     l2786:
  3654     0CCD  108C               	bcf	12,1	;volatile
  3655     0CCE                     l2788:
  3656     0CCE  110C               	bcf	12,2	;volatile
  3657     0CCF                     l2790:
  3658     0CCF  118C               	bcf	12,3	;volatile
  3659     0CD0                     l2792:
  3660     0CD0  120C               	bcf	12,4	;volatile
  3661     0CD1                     l2794:
  3662     0CD1  130C               	bcf	12,6	;volatile
  3663     0CD2                     l2796:
  3664     0CD2  138C               	bcf	12,7	;volatile
  3665     0CD3                     l2798:
  3666     0CD3  100D               	bcf	13,0	;volatile
  3667     0CD4                     l335:
  3668     0CD4  0008               	return
  3669     0CD5                     __end_of_inicializar_nuestro_Display:
  3670                           
  3671                           	psect	text7
  3672     0C5E                     __ptext7:	
  3673 ;; *************** function _enviarsiguiente_Dato *****************
  3674 ;; Defined at:
  3675 ;;		line 36 in file "nuestroserial.c"
  3676 ;; Parameters:    Size  Location     Type
  3677 ;;  ser             1    wreg     PTR struct Sr_Serial
  3678 ;;		 -> main@miserial(10), 
  3679 ;; Auto vars:     Size  Location     Type
  3680 ;;  ser             1    2[COMMON] PTR struct Sr_Serial
  3681 ;;		 -> main@miserial(10), 
  3682 ;; Return value:  Size  Location     Type
  3683 ;;                  1    wreg      void 
  3684 ;; Registers used:
  3685 ;;		wreg, fsr1l, fsr1h, status,2, status,0, pclath, cstack
  3686 ;; Tracked objects:
  3687 ;;		On entry : 0/0
  3688 ;;		On exit  : 0/0
  3689 ;;		Unchanged: 0/0
  3690 ;; Data sizes:     COMMON   BANK0   BANK1   BANK2   BANK3   BANK4
  3691 ;;      Params:         0       0       0       0       0       0
  3692 ;;      Locals:         1       0       0       0       0       0
  3693 ;;      Temps:          1       0       0       0       0       0
  3694 ;;      Totals:         2       0       0       0       0       0
  3695 ;;Total ram usage:        2 bytes
  3696 ;; Hardware stack levels used: 1
  3697 ;; Hardware stack levels required when called: 1
  3698 ;; This function calls:
  3699 ;;		_EUSART_Write
  3700 ;; This function is called by:
  3701 ;;		_main
  3702 ;; This function uses a non-reentrant model
  3703 ;;
  3704                           
  3705     0C5E                     _enviarsiguiente_Dato:	
  3706                           ;psect for function _enviarsiguiente_Dato
  3707                           
  3708                           
  3709                           ;incstack = 0
  3710                           ; Regs used in _enviarsiguiente_Dato: [wreg+fsr1l+fsr1h+status,2+status,0+pclath+cstack]
  3711                           ;enviarsiguiente_Dato@ser stored from wreg
  3712     0C5E  00F2               	movwf	enviarsiguiente_Dato@ser
  3713     0C5F                     l2890:
  3714                           
  3715                           ;nuestroserial.c: 37:     EUSART_Write(ser->datosaenviar[ser->contador]);
  3716     0C5F  0872               	movf	enviarsiguiente_Dato@ser,w
  3717     0C60  3E06               	addlw	6
  3718     0C61  0086               	movwf	6
  3719     0C62  0187               	clrf	7
  3720     0C63  0801               	movf	1,w
  3721     0C64  0772               	addwf	enviarsiguiente_Dato@ser,w
  3722     0C65  00F1               	movwf	??_enviarsiguiente_Dato
  3723     0C66  0871               	movf	??_enviarsiguiente_Dato,w
  3724     0C67  0086               	movwf	6
  3725     0C68  0187               	clrf	7
  3726     0C69  0801               	movf	1,w
  3727     0C6A  318B  23FE  318C   	fcall	_EUSART_Write
  3728     0C6D                     l2892:
  3729                           
  3730                           ;nuestroserial.c: 38:     ser->contador++;
  3731     0C6D  3001               	movlw	1
  3732     0C6E  00F1               	movwf	??_enviarsiguiente_Dato
  3733     0C6F  0872               	movf	enviarsiguiente_Dato@ser,w
  3734     0C70  3E06               	addlw	6
  3735     0C71  0086               	movwf	6
  3736     0C72  0187               	clrf	7
  3737     0C73  0871               	movf	??_enviarsiguiente_Dato,w
  3738     0C74  0781               	addwf	1,f
  3739     0C75                     l540:
  3740     0C75  0008               	return
  3741     0C76                     __end_of_enviarsiguiente_Dato:
  3742                           
  3743                           	psect	text8
  3744     0BFE                     __ptext8:	
  3745 ;; *************** function _EUSART_Write *****************
  3746 ;; Defined at:
  3747 ;;		line 132 in file "mcc_generated_files/eusart.c"
  3748 ;; Parameters:    Size  Location     Type
  3749 ;;  txData          1    wreg     unsigned char 
  3750 ;; Auto vars:     Size  Location     Type
  3751 ;;  txData          1    0[COMMON] unsigned char 
  3752 ;; Return value:  Size  Location     Type
  3753 ;;                  1    wreg      void 
  3754 ;; Registers used:
  3755 ;;		wreg
  3756 ;; Tracked objects:
  3757 ;;		On entry : 0/0
  3758 ;;		On exit  : 0/0
  3759 ;;		Unchanged: 0/0
  3760 ;; Data sizes:     COMMON   BANK0   BANK1   BANK2   BANK3   BANK4
  3761 ;;      Params:         0       0       0       0       0       0
  3762 ;;      Locals:         1       0       0       0       0       0
  3763 ;;      Temps:          0       0       0       0       0       0
  3764 ;;      Totals:         1       0       0       0       0       0
  3765 ;;Total ram usage:        1 bytes
  3766 ;; Hardware stack levels used: 1
  3767 ;; This function calls:
  3768 ;;		Nothing
  3769 ;; This function is called by:
  3770 ;;		_enviarsiguiente_Dato
  3771 ;; This function uses a non-reentrant model
  3772 ;;
  3773                           
  3774     0BFE                     _EUSART_Write:	
  3775                           ;psect for function _EUSART_Write
  3776                           
  3777                           
  3778                           ;incstack = 0
  3779                           ; Regs used in _EUSART_Write: [wreg]
  3780                           ;EUSART_Write@txData stored from wreg
  3781     0BFE  00F0               	movwf	EUSART_Write@txData
  3782     0BFF                     l2354:
  3783     0BFF                     l126:	
  3784                           ;mcc_generated_files/eusart.c: 135:     {;mcc_generated_files/eusart.c: 136:     }
  3785                           
  3786                           
  3787                           ;mcc_generated_files/eusart.c: 134:     while(0 == PIR1bits.TXIF)
  3788     0BFF  0020               	movlb	0	; select bank0
  3789     0C00  1E11               	btfss	17,4	;volatile
  3790     0C01  2C03               	goto	u1941
  3791     0C02  2C04               	goto	u1940
  3792     0C03                     u1941:
  3793     0C03  2BFF               	goto	l126
  3794     0C04                     u1940:
  3795     0C04                     l2356:
  3796                           
  3797                           ;mcc_generated_files/eusart.c: 138:     TXREG = txData;
  3798     0C04  0870               	movf	EUSART_Write@txData,w
  3799     0C05  0023               	movlb	3	; select bank3
  3800     0C06  009A               	movwf	26	;volatile
  3801     0C07                     l129:
  3802     0C07  0008               	return
  3803     0C08                     __end_of_EUSART_Write:
  3804                           
  3805                           	psect	text9
  3806     0D1D                     __ptext9:	
  3807 ;; *************** function _Tm_Procese_tiempo *****************
  3808 ;; Defined at:
  3809 ;;		line 17 in file "nuestrostimers.c"
  3810 ;; Parameters:    Size  Location     Type
  3811 ;;  ctp             1    wreg     PTR struct Tm_Periodico
  3812 ;;		 -> main@timer_ADC(7), 
  3813 ;; Auto vars:     Size  Location     Type
  3814 ;;  ctp             1    4[COMMON] PTR struct Tm_Periodico
  3815 ;;		 -> main@timer_ADC(7), 
  3816 ;; Return value:  Size  Location     Type
  3817 ;;                  1    wreg      void 
  3818 ;; Registers used:
  3819 ;;		wreg, fsr0l, fsr0h, fsr1l, fsr1h, status,2, status,0
  3820 ;; Tracked objects:
  3821 ;;		On entry : 0/0
  3822 ;;		On exit  : 0/0
  3823 ;;		Unchanged: 0/0
  3824 ;; Data sizes:     COMMON   BANK0   BANK1   BANK2   BANK3   BANK4
  3825 ;;      Params:         0       0       0       0       0       0
  3826 ;;      Locals:         1       0       0       0       0       0
  3827 ;;      Temps:          4       0       0       0       0       0
  3828 ;;      Totals:         5       0       0       0       0       0
  3829 ;;Total ram usage:        5 bytes
  3830 ;; Hardware stack levels used: 1
  3831 ;; This function calls:
  3832 ;;		Nothing
  3833 ;; This function is called by:
  3834 ;;		_main
  3835 ;; This function uses a non-reentrant model
  3836 ;;
  3837                           
  3838     0D1D                     _Tm_Procese_tiempo:	
  3839                           ;psect for function _Tm_Procese_tiempo
  3840                           
  3841                           
  3842                           ;incstack = 0
  3843                           ; Regs used in _Tm_Procese_tiempo: [wreg-fsr1h+status,2+status,0]
  3844                           ;Tm_Procese_tiempo@ctp stored from wreg
  3845     0D1D  00F4               	movwf	Tm_Procese_tiempo@ctp
  3846     0D1E                     l2800:
  3847                           
  3848                           ;nuestrostimers.c: 17: void Tm_Procese_tiempo (Tm_Periodico *ctp);nuestrostimers.c: 18: 
      +                          {;nuestrostimers.c: 21:  if (ctp->banderas & 0x01U)
  3849     0D1E  0874               	movf	Tm_Procese_tiempo@ctp,w
  3850     0D1F  3E06               	addlw	6
  3851     0D20  0086               	movwf	6
  3852     0D21  0187               	clrf	7
  3853     0D22  1C01               	btfss	1,0
  3854     0D23  2D25               	goto	u2781
  3855     0D24  2D26               	goto	u2780
  3856     0D25                     u2781:
  3857     0D25  2D48               	goto	l2810
  3858     0D26                     u2780:
  3859     0D26                     l2802:
  3860                           
  3861                           ;nuestrostimers.c: 22:  {;nuestrostimers.c: 23:   --(ctp->contador);
  3862     0D26  0874               	movf	Tm_Procese_tiempo@ctp,w
  3863     0D27  0086               	movwf	6
  3864     0D28  0187               	clrf	7
  3865     0D29  3001               	movlw	1
  3866     0D2A  0281               	subwf	1,f
  3867     0D2B  3141               	addfsr 1,1
  3868     0D2C  3000               	movlw	0
  3869     0D2D  3B81               	subwfb	1,f
  3870     0D2E  317F               	addfsr 1,-1
  3871     0D2F                     l2804:
  3872                           
  3873                           ;nuestrostimers.c: 24:   if ( !(ctp->contador) )
  3874     0D2F  0874               	movf	Tm_Procese_tiempo@ctp,w
  3875     0D30  0086               	movwf	6
  3876     0D31  0187               	clrf	7
  3877     0D32  0016               	moviw fsr1++
  3878     0D33  0401               	iorwf	1,w
  3879     0D34  1D03               	btfss	3,2
  3880     0D35  2D37               	goto	u2791
  3881     0D36  2D38               	goto	u2790
  3882     0D37                     u2791:
  3883     0D37  2D48               	goto	l2810
  3884     0D38                     u2790:
  3885     0D38                     l2806:
  3886                           
  3887                           ;nuestrostimers.c: 25:   {;nuestrostimers.c: 26:    ctp->banderas |= 0x02U;
  3888     0D38  0874               	movf	Tm_Procese_tiempo@ctp,w
  3889     0D39  3E06               	addlw	6
  3890     0D3A  0086               	movwf	6
  3891     0D3B  0187               	clrf	7
  3892     0D3C  1481               	bsf	1,1
  3893     0D3D                     l2808:
  3894                           
  3895                           ;nuestrostimers.c: 27:    ctp->contador = ctp->periodo;
  3896     0D3D  0874               	movf	Tm_Procese_tiempo@ctp,w
  3897     0D3E  3E02               	addlw	2
  3898     0D3F  0086               	movwf	6
  3899     0D40  0187               	clrf	7
  3900     0D41  0874               	movf	Tm_Procese_tiempo@ctp,w
  3901     0D42  0084               	movwf	4
  3902     0D43  0185               	clrf	5
  3903     0D44  3F40               	moviw [0]fsr1
  3904     0D45  3F80               	movwi [0]fsr0
  3905     0D46  3F41               	moviw [1]fsr1
  3906     0D47  3F81               	movwi [1]fsr0
  3907     0D48                     l2810:
  3908                           
  3909                           ;nuestrostimers.c: 30:  if (ctp->banderas & 0x04U)
  3910     0D48  0874               	movf	Tm_Procese_tiempo@ctp,w
  3911     0D49  3E06               	addlw	6
  3912     0D4A  0086               	movwf	6
  3913     0D4B  0187               	clrf	7
  3914     0D4C  1D01               	btfss	1,2
  3915     0D4D  2D4F               	goto	u2801
  3916     0D4E  2D50               	goto	u2800
  3917     0D4F                     u2801:
  3918     0D4F  2D66               	goto	l288
  3919     0D50                     u2800:
  3920     0D50                     l2812:
  3921                           
  3922                           ;nuestrostimers.c: 31:  ctp->timeout=ctp->timeout-1;
  3923     0D50  0874               	movf	Tm_Procese_tiempo@ctp,w
  3924     0D51  3E04               	addlw	4
  3925     0D52  0086               	movwf	6
  3926     0D53  0187               	clrf	7
  3927     0D54  3F40               	moviw [0]fsr1
  3928     0D55  00F0               	movwf	??_Tm_Procese_tiempo
  3929     0D56  3F41               	moviw [1]fsr1
  3930     0D57  00F1               	movwf	??_Tm_Procese_tiempo+1
  3931     0D58  0870               	movf	??_Tm_Procese_tiempo,w
  3932     0D59  3EFF               	addlw	255
  3933     0D5A  00F2               	movwf	??_Tm_Procese_tiempo+2
  3934     0D5B  30FF               	movlw	255
  3935     0D5C  3D71               	addwfc	??_Tm_Procese_tiempo+1,w
  3936     0D5D  00F3               	movwf	??_Tm_Procese_tiempo+3
  3937     0D5E  0874               	movf	Tm_Procese_tiempo@ctp,w
  3938     0D5F  3E04               	addlw	4
  3939     0D60  0086               	movwf	6
  3940     0D61  0187               	clrf	7
  3941     0D62  0872               	movf	??_Tm_Procese_tiempo+2,w
  3942     0D63  3FC0               	movwi [0]fsr1
  3943     0D64  0873               	movf	??_Tm_Procese_tiempo+3,w
  3944     0D65  3FC1               	movwi [1]fsr1
  3945     0D66                     l288:
  3946     0D66  0008               	return
  3947     0D67                     __end_of_Tm_Procese_tiempo:
  3948                           
  3949                           	psect	text10
  3950     0C76                     __ptext10:	
  3951 ;; *************** function _Tm_Inicie_periodico *****************
  3952 ;; Defined at:
  3953 ;;		line 11 in file "nuestrostimers.c"
  3954 ;; Parameters:    Size  Location     Type
  3955 ;;  ctp             1    wreg     PTR struct Tm_Periodico
  3956 ;;		 -> main@timer_ADC(7), 
  3957 ;;  periodo         2    0[COMMON] unsigned int 
  3958 ;; Auto vars:     Size  Location     Type
  3959 ;;  ctp             1    3[COMMON] PTR struct Tm_Periodico
  3960 ;;		 -> main@timer_ADC(7), 
  3961 ;; Return value:  Size  Location     Type
  3962 ;;                  1    wreg      void 
  3963 ;; Registers used:
  3964 ;;		wreg, fsr1l, fsr1h, status,2, status,0
  3965 ;; Tracked objects:
  3966 ;;		On entry : 0/0
  3967 ;;		On exit  : 0/0
  3968 ;;		Unchanged: 0/0
  3969 ;; Data sizes:     COMMON   BANK0   BANK1   BANK2   BANK3   BANK4
  3970 ;;      Params:         2       0       0       0       0       0
  3971 ;;      Locals:         1       0       0       0       0       0
  3972 ;;      Temps:          1       0       0       0       0       0
  3973 ;;      Totals:         4       0       0       0       0       0
  3974 ;;Total ram usage:        4 bytes
  3975 ;; Hardware stack levels used: 1
  3976 ;; This function calls:
  3977 ;;		Nothing
  3978 ;; This function is called by:
  3979 ;;		_main
  3980 ;; This function uses a non-reentrant model
  3981 ;;
  3982                           
  3983     0C76                     _Tm_Inicie_periodico:	
  3984                           ;psect for function _Tm_Inicie_periodico
  3985                           
  3986                           
  3987                           ;incstack = 0
  3988                           ; Regs used in _Tm_Inicie_periodico: [wreg+fsr1l+fsr1h+status,2+status,0]
  3989                           ;Tm_Inicie_periodico@ctp stored from wreg
  3990     0C76  00F3               	movwf	Tm_Inicie_periodico@ctp
  3991     0C77                     l2768:
  3992                           
  3993                           ;nuestrostimers.c: 11: void Tm_Inicie_periodico (Tm_Periodico *ctp,unsigned int periodo)
      +                          ;nuestrostimers.c: 12: {;nuestrostimers.c: 13:  ctp->banderas |= 0x01U;
  3994     0C77  0873               	movf	Tm_Inicie_periodico@ctp,w
  3995     0C78  3E06               	addlw	6
  3996     0C79  0086               	movwf	6
  3997     0C7A  0187               	clrf	7
  3998     0C7B  1401               	bsf	1,0
  3999                           
  4000                           ;nuestrostimers.c: 14:  ctp->banderas &= ~0x02U;
  4001     0C7C  30FD               	movlw	253
  4002     0C7D  00F2               	movwf	??_Tm_Inicie_periodico
  4003     0C7E  0873               	movf	Tm_Inicie_periodico@ctp,w
  4004     0C7F  3E06               	addlw	6
  4005     0C80  0086               	movwf	6
  4006     0C81  0187               	clrf	7
  4007     0C82  0872               	movf	??_Tm_Inicie_periodico,w
  4008     0C83  0581               	andwf	1,f
  4009                           
  4010                           ;nuestrostimers.c: 15:  ctp->contador = ctp->periodo = periodo;
  4011     0C84  0873               	movf	Tm_Inicie_periodico@ctp,w
  4012     0C85  3E02               	addlw	2
  4013     0C86  0086               	movwf	6
  4014     0C87  0187               	clrf	7
  4015     0C88  0870               	movf	Tm_Inicie_periodico@periodo,w
  4016     0C89  3FC0               	movwi [0]fsr1
  4017     0C8A  0871               	movf	Tm_Inicie_periodico@periodo+1,w
  4018     0C8B  3FC1               	movwi [1]fsr1
  4019     0C8C  0873               	movf	Tm_Inicie_periodico@ctp,w
  4020     0C8D  0086               	movwf	6
  4021     0C8E  0187               	clrf	7
  4022     0C8F  0870               	movf	Tm_Inicie_periodico@periodo,w
  4023     0C90  3FC0               	movwi [0]fsr1
  4024     0C91  0871               	movf	Tm_Inicie_periodico@periodo+1,w
  4025     0C92  3FC1               	movwi [1]fsr1
  4026     0C93                     l282:
  4027     0C93  0008               	return
  4028     0C94                     __end_of_Tm_Inicie_periodico:
  4029                           
  4030                           	psect	text11
  4031     0BEC                     __ptext11:	
  4032 ;; *************** function _Tm_Hubo_periodico *****************
  4033 ;; Defined at:
  4034 ;;		line 33 in file "nuestrostimers.c"
  4035 ;; Parameters:    Size  Location     Type
  4036 ;;  ctp             1    wreg     PTR struct Tm_Periodico
  4037 ;;		 -> main@timer_ADC(7), 
  4038 ;; Auto vars:     Size  Location     Type
  4039 ;;  ctp             1    0[COMMON] PTR struct Tm_Periodico
  4040 ;;		 -> main@timer_ADC(7), 
  4041 ;; Return value:  Size  Location     Type
  4042 ;;                  1    wreg      unsigned char 
  4043 ;; Registers used:
  4044 ;;		wreg, fsr1l, fsr1h, status,2, status,0
  4045 ;; Tracked objects:
  4046 ;;		On entry : 0/0
  4047 ;;		On exit  : 0/0
  4048 ;;		Unchanged: 0/0
  4049 ;; Data sizes:     COMMON   BANK0   BANK1   BANK2   BANK3   BANK4
  4050 ;;      Params:         0       0       0       0       0       0
  4051 ;;      Locals:         1       0       0       0       0       0
  4052 ;;      Temps:          0       0       0       0       0       0
  4053 ;;      Totals:         1       0       0       0       0       0
  4054 ;;Total ram usage:        1 bytes
  4055 ;; Hardware stack levels used: 1
  4056 ;; This function calls:
  4057 ;;		Nothing
  4058 ;; This function is called by:
  4059 ;;		_main
  4060 ;; This function uses a non-reentrant model
  4061 ;;
  4062                           
  4063     0BEC                     _Tm_Hubo_periodico:	
  4064                           ;psect for function _Tm_Hubo_periodico
  4065                           
  4066                           
  4067                           ;incstack = 0
  4068                           ; Regs used in _Tm_Hubo_periodico: [wreg+fsr1l+fsr1h+status,2+status,0]
  4069                           ;Tm_Hubo_periodico@ctp stored from wreg
  4070     0BEC  00F0               	movwf	Tm_Hubo_periodico@ctp
  4071     0BED                     l2842:
  4072                           
  4073                           ;nuestrostimers.c: 33: char Tm_Hubo_periodico (Tm_Periodico *ctp);nuestrostimers.c: 34: 
      +                          {;nuestrostimers.c: 35:  return (ctp->banderas & 0x02U);
  4074     0BED  0870               	movf	Tm_Hubo_periodico@ctp,w
  4075     0BEE  3E06               	addlw	6
  4076     0BEF  0086               	movwf	6
  4077     0BF0  0187               	clrf	7
  4078     0BF1  0801               	movf	1,w
  4079     0BF2  3902               	andlw	2
  4080     0BF3                     l291:
  4081     0BF3  0008               	return
  4082     0BF4                     __end_of_Tm_Hubo_periodico:
  4083                           
  4084                           	psect	text12
  4085     0BF4                     __ptext12:	
  4086 ;; *************** function _Tm_Baje_periodico *****************
  4087 ;; Defined at:
  4088 ;;		line 37 in file "nuestrostimers.c"
  4089 ;; Parameters:    Size  Location     Type
  4090 ;;  ctp             1    wreg     PTR struct Tm_Periodico
  4091 ;;		 -> main@timer_ADC(7), 
  4092 ;; Auto vars:     Size  Location     Type
  4093 ;;  ctp             1    1[COMMON] PTR struct Tm_Periodico
  4094 ;;		 -> main@timer_ADC(7), 
  4095 ;; Return value:  Size  Location     Type
  4096 ;;                  1    wreg      void 
  4097 ;; Registers used:
  4098 ;;		wreg, fsr1l, fsr1h, status,2, status,0
  4099 ;; Tracked objects:
  4100 ;;		On entry : 0/0
  4101 ;;		On exit  : 0/0
  4102 ;;		Unchanged: 0/0
  4103 ;; Data sizes:     COMMON   BANK0   BANK1   BANK2   BANK3   BANK4
  4104 ;;      Params:         0       0       0       0       0       0
  4105 ;;      Locals:         1       0       0       0       0       0
  4106 ;;      Temps:          1       0       0       0       0       0
  4107 ;;      Totals:         2       0       0       0       0       0
  4108 ;;Total ram usage:        2 bytes
  4109 ;; Hardware stack levels used: 1
  4110 ;; This function calls:
  4111 ;;		Nothing
  4112 ;; This function is called by:
  4113 ;;		_main
  4114 ;; This function uses a non-reentrant model
  4115 ;;
  4116                           
  4117     0BF4                     _Tm_Baje_periodico:	
  4118                           ;psect for function _Tm_Baje_periodico
  4119                           
  4120                           
  4121                           ;incstack = 0
  4122                           ; Regs used in _Tm_Baje_periodico: [wreg+fsr1l+fsr1h+status,2+status,0]
  4123                           ;Tm_Baje_periodico@ctp stored from wreg
  4124     0BF4  00F1               	movwf	Tm_Baje_periodico@ctp
  4125     0BF5                     l2846:
  4126                           
  4127                           ;nuestrostimers.c: 37: void Tm_Baje_periodico (Tm_Periodico *ctp);nuestrostimers.c: 38: 
      +                          {;nuestrostimers.c: 39:  ctp->banderas &= ~0x02U;
  4128     0BF5  30FD               	movlw	253
  4129     0BF6  00F0               	movwf	??_Tm_Baje_periodico
  4130     0BF7  0871               	movf	Tm_Baje_periodico@ctp,w
  4131     0BF8  3E06               	addlw	6
  4132     0BF9  0086               	movwf	6
  4133     0BFA  0187               	clrf	7
  4134     0BFB  0870               	movf	??_Tm_Baje_periodico,w
  4135     0BFC  0581               	andwf	1,f
  4136     0BFD                     l294:
  4137     0BFD  0008               	return
  4138     0BFE                     __end_of_Tm_Baje_periodico:
  4139                           
  4140                           	psect	text13
  4141     0C08                     __ptext13:	
  4142 ;; *************** function _TMR2_HasOverflowOccured *****************
  4143 ;; Defined at:
  4144 ;;		line 111 in file "mcc_generated_files/tmr2.c"
  4145 ;; Parameters:    Size  Location     Type
  4146 ;;		None
  4147 ;; Auto vars:     Size  Location     Type
  4148 ;;  status          1    0[COMMON] _Bool 
  4149 ;; Return value:  Size  Location     Type
  4150 ;;                  1    wreg      _Bool 
  4151 ;; Registers used:
  4152 ;;		wreg, status,2, status,0
  4153 ;; Tracked objects:
  4154 ;;		On entry : 0/0
  4155 ;;		On exit  : 0/0
  4156 ;;		Unchanged: 0/0
  4157 ;; Data sizes:     COMMON   BANK0   BANK1   BANK2   BANK3   BANK4
  4158 ;;      Params:         0       0       0       0       0       0
  4159 ;;      Locals:         1       0       0       0       0       0
  4160 ;;      Temps:          0       0       0       0       0       0
  4161 ;;      Totals:         1       0       0       0       0       0
  4162 ;;Total ram usage:        1 bytes
  4163 ;; Hardware stack levels used: 1
  4164 ;; This function calls:
  4165 ;;		Nothing
  4166 ;; This function is called by:
  4167 ;;		_main
  4168 ;; This function uses a non-reentrant model
  4169 ;;
  4170                           
  4171     0C08                     _TMR2_HasOverflowOccured:	
  4172                           ;psect for function _TMR2_HasOverflowOccured
  4173                           
  4174     0C08                     l2758:	
  4175                           ;incstack = 0
  4176                           ; Regs used in _TMR2_HasOverflowOccured: [wreg+status,2+status,0]
  4177                           
  4178                           
  4179                           ;mcc_generated_files/tmr2.c: 114:     _Bool status = PIR1bits.TMR2IF;
  4180     0C08  3000               	movlw	0
  4181     0C09  0020               	movlb	0	; select bank0
  4182     0C0A  1891               	btfsc	17,1	;volatile
  4183     0C0B  3001               	movlw	1
  4184     0C0C  00F0               	movwf	TMR2_HasOverflowOccured@status
  4185     0C0D                     l2760:
  4186                           
  4187                           ;mcc_generated_files/tmr2.c: 115:     if(status)
  4188     0C0D  0870               	movf	TMR2_HasOverflowOccured@status,w
  4189     0C0E  1903               	btfsc	3,2
  4190     0C0F  2C11               	goto	u2761
  4191     0C10  2C12               	goto	u2760
  4192     0C11                     u2761:
  4193     0C11  2C13               	goto	l2764
  4194     0C12                     u2760:
  4195     0C12                     l2762:
  4196                           
  4197                           ;mcc_generated_files/tmr2.c: 116:     {;mcc_generated_files/tmr2.c: 118:         PIR1bit
      +                          s.TMR2IF = 0;
  4198     0C12  1091               	bcf	17,1	;volatile
  4199     0C13                     l2764:
  4200                           
  4201                           ;mcc_generated_files/tmr2.c: 120:     return status;
  4202     0C13  0870               	movf	TMR2_HasOverflowOccured@status,w
  4203     0C14                     l227:
  4204     0C14  0008               	return
  4205     0C15                     __end_of_TMR2_HasOverflowOccured:
  4206                           
  4207                           	psect	text14
  4208     0C48                     __ptext14:	
  4209 ;; *************** function _SYSTEM_Initialize *****************
  4210 ;; Defined at:
  4211 ;;		line 50 in file "mcc_generated_files/mcc.c"
  4212 ;; Parameters:    Size  Location     Type
  4213 ;;		None
  4214 ;; Auto vars:     Size  Location     Type
  4215 ;;		None
  4216 ;; Return value:  Size  Location     Type
  4217 ;;                  1    wreg      void 
  4218 ;; Registers used:
  4219 ;;		wreg, status,2, status,0, pclath, cstack
  4220 ;; Tracked objects:
  4221 ;;		On entry : 0/0
  4222 ;;		On exit  : 0/0
  4223 ;;		Unchanged: 0/0
  4224 ;; Data sizes:     COMMON   BANK0   BANK1   BANK2   BANK3   BANK4
  4225 ;;      Params:         0       0       0       0       0       0
  4226 ;;      Locals:         0       0       0       0       0       0
  4227 ;;      Temps:          0       0       0       0       0       0
  4228 ;;      Totals:         0       0       0       0       0       0
  4229 ;;Total ram usage:        0 bytes
  4230 ;; Hardware stack levels used: 1
  4231 ;; Hardware stack levels required when called: 2
  4232 ;; This function calls:
  4233 ;;		_ADC_Initialize
  4234 ;;		_EUSART_Initialize
  4235 ;;		_FVR_Initialize
  4236 ;;		_OSCILLATOR_Initialize
  4237 ;;		_PIN_MANAGER_Initialize
  4238 ;;		_TMR2_Initialize
  4239 ;;		_WDT_Initialize
  4240 ;; This function is called by:
  4241 ;;		_main
  4242 ;; This function uses a non-reentrant model
  4243 ;;
  4244                           
  4245     0C48                     _SYSTEM_Initialize:	
  4246                           ;psect for function _SYSTEM_Initialize
  4247                           
  4248     0C48                     l2734:	
  4249                           ;incstack = 0
  4250                           ; Regs used in _SYSTEM_Initialize: [wreg+status,2+status,0+pclath+cstack]
  4251                           
  4252                           
  4253                           ;mcc_generated_files/mcc.c: 53:     PIN_MANAGER_Initialize();
  4254     0C48  318C  2432  318C   	fcall	_PIN_MANAGER_Initialize
  4255                           
  4256                           ;mcc_generated_files/mcc.c: 54:     OSCILLATOR_Initialize();
  4257     0C4B  318B  23D5  318C   	fcall	_OSCILLATOR_Initialize
  4258                           
  4259                           ;mcc_generated_files/mcc.c: 55:     WDT_Initialize();
  4260     0C4E  318B  23B2  318C   	fcall	_WDT_Initialize
  4261                           
  4262                           ;mcc_generated_files/mcc.c: 56:     FVR_Initialize();
  4263     0C51  318B  23AE  318C   	fcall	_FVR_Initialize
  4264                           
  4265                           ;mcc_generated_files/mcc.c: 57:     ADC_Initialize();
  4266     0C54  318B  23DC  318C   	fcall	_ADC_Initialize
  4267                           
  4268                           ;mcc_generated_files/mcc.c: 58:     TMR2_Initialize();
  4269     0C57  318B  23E4  318C   	fcall	_TMR2_Initialize
  4270                           
  4271                           ;mcc_generated_files/mcc.c: 59:     EUSART_Initialize();
  4272     0C5A  318C  24D5  318C   	fcall	_EUSART_Initialize
  4273     0C5D                     l25:
  4274     0C5D  0008               	return
  4275     0C5E                     __end_of_SYSTEM_Initialize:
  4276                           
  4277                           	psect	text15
  4278     0BB2                     __ptext15:	
  4279 ;; *************** function _WDT_Initialize *****************
  4280 ;; Defined at:
  4281 ;;		line 72 in file "mcc_generated_files/mcc.c"
  4282 ;; Parameters:    Size  Location     Type
  4283 ;;		None
  4284 ;; Auto vars:     Size  Location     Type
  4285 ;;		None
  4286 ;; Return value:  Size  Location     Type
  4287 ;;                  1    wreg      void 
  4288 ;; Registers used:
  4289 ;;		wreg
  4290 ;; Tracked objects:
  4291 ;;		On entry : 0/0
  4292 ;;		On exit  : 0/0
  4293 ;;		Unchanged: 0/0
  4294 ;; Data sizes:     COMMON   BANK0   BANK1   BANK2   BANK3   BANK4
  4295 ;;      Params:         0       0       0       0       0       0
  4296 ;;      Locals:         0       0       0       0       0       0
  4297 ;;      Temps:          0       0       0       0       0       0
  4298 ;;      Totals:         0       0       0       0       0       0
  4299 ;;Total ram usage:        0 bytes
  4300 ;; Hardware stack levels used: 1
  4301 ;; This function calls:
  4302 ;;		Nothing
  4303 ;; This function is called by:
  4304 ;;		_SYSTEM_Initialize
  4305 ;; This function uses a non-reentrant model
  4306 ;;
  4307                           
  4308     0BB2                     _WDT_Initialize:	
  4309                           ;psect for function _WDT_Initialize
  4310                           
  4311     0BB2                     l2324:	
  4312                           ;incstack = 0
  4313                           ; Regs used in _WDT_Initialize: [wreg]
  4314                           
  4315                           
  4316                           ;mcc_generated_files/mcc.c: 75:     WDTCON = 0x16;
  4317     0BB2  3016               	movlw	22
  4318     0BB3  0021               	movlb	1	; select bank1
  4319     0BB4  0097               	movwf	23	;volatile
  4320     0BB5                     l31:
  4321     0BB5  0008               	return
  4322     0BB6                     __end_of_WDT_Initialize:
  4323                           
  4324                           	psect	text16
  4325     0BE4                     __ptext16:	
  4326 ;; *************** function _TMR2_Initialize *****************
  4327 ;; Defined at:
  4328 ;;		line 62 in file "mcc_generated_files/tmr2.c"
  4329 ;; Parameters:    Size  Location     Type
  4330 ;;		None
  4331 ;; Auto vars:     Size  Location     Type
  4332 ;;		None
  4333 ;; Return value:  Size  Location     Type
  4334 ;;                  1    wreg      void 
  4335 ;; Registers used:
  4336 ;;		wreg, status,2
  4337 ;; Tracked objects:
  4338 ;;		On entry : 0/0
  4339 ;;		On exit  : 0/0
  4340 ;;		Unchanged: 0/0
  4341 ;; Data sizes:     COMMON   BANK0   BANK1   BANK2   BANK3   BANK4
  4342 ;;      Params:         0       0       0       0       0       0
  4343 ;;      Locals:         0       0       0       0       0       0
  4344 ;;      Temps:          0       0       0       0       0       0
  4345 ;;      Totals:         0       0       0       0       0       0
  4346 ;;Total ram usage:        0 bytes
  4347 ;; Hardware stack levels used: 1
  4348 ;; This function calls:
  4349 ;;		Nothing
  4350 ;; This function is called by:
  4351 ;;		_SYSTEM_Initialize
  4352 ;; This function uses a non-reentrant model
  4353 ;;
  4354                           
  4355     0BE4                     _TMR2_Initialize:	
  4356                           ;psect for function _TMR2_Initialize
  4357                           
  4358     0BE4                     l2334:	
  4359                           ;incstack = 0
  4360                           ; Regs used in _TMR2_Initialize: [wreg+status,2]
  4361                           
  4362                           
  4363                           ;mcc_generated_files/tmr2.c: 67:     PR2 = 0x3E;
  4364     0BE4  303E               	movlw	62
  4365     0BE5  0020               	movlb	0	; select bank0
  4366     0BE6  009B               	movwf	27	;volatile
  4367     0BE7                     l2336:
  4368                           
  4369                           ;mcc_generated_files/tmr2.c: 70:     TMR2 = 0x00;
  4370     0BE7  019A               	clrf	26	;volatile
  4371     0BE8                     l2338:
  4372                           
  4373                           ;mcc_generated_files/tmr2.c: 73:     PIR1bits.TMR2IF = 0;
  4374     0BE8  1091               	bcf	17,1	;volatile
  4375     0BE9                     l2340:
  4376                           
  4377                           ;mcc_generated_files/tmr2.c: 76:     T2CON = 0x4E;
  4378     0BE9  304E               	movlw	78
  4379     0BEA  009C               	movwf	28	;volatile
  4380     0BEB                     l208:
  4381     0BEB  0008               	return
  4382     0BEC                     __end_of_TMR2_Initialize:
  4383                           
  4384                           	psect	text17
  4385     0C32                     __ptext17:	
  4386 ;; *************** function _PIN_MANAGER_Initialize *****************
  4387 ;; Defined at:
  4388 ;;		line 55 in file "mcc_generated_files/pin_manager.c"
  4389 ;; Parameters:    Size  Location     Type
  4390 ;;		None
  4391 ;; Auto vars:     Size  Location     Type
  4392 ;;		None
  4393 ;; Return value:  Size  Location     Type
  4394 ;;                  1    wreg      void 
  4395 ;; Registers used:
  4396 ;;		wreg, status,2
  4397 ;; Tracked objects:
  4398 ;;		On entry : 0/0
  4399 ;;		On exit  : 0/0
  4400 ;;		Unchanged: 0/0
  4401 ;; Data sizes:     COMMON   BANK0   BANK1   BANK2   BANK3   BANK4
  4402 ;;      Params:         0       0       0       0       0       0
  4403 ;;      Locals:         0       0       0       0       0       0
  4404 ;;      Temps:          0       0       0       0       0       0
  4405 ;;      Totals:         0       0       0       0       0       0
  4406 ;;Total ram usage:        0 bytes
  4407 ;; Hardware stack levels used: 1
  4408 ;; This function calls:
  4409 ;;		Nothing
  4410 ;; This function is called by:
  4411 ;;		_SYSTEM_Initialize
  4412 ;; This function uses a non-reentrant model
  4413 ;;
  4414                           
  4415     0C32                     _PIN_MANAGER_Initialize:	
  4416                           ;psect for function _PIN_MANAGER_Initialize
  4417                           
  4418     0C32                     l2306:	
  4419                           ;incstack = 0
  4420                           ; Regs used in _PIN_MANAGER_Initialize: [wreg+status,2]
  4421                           
  4422                           
  4423                           ;mcc_generated_files/pin_manager.c: 60:     LATA = 0x00;
  4424     0C32  0022               	movlb	2	; select bank2
  4425     0C33  018C               	clrf	12	;volatile
  4426                           
  4427                           ;mcc_generated_files/pin_manager.c: 61:     LATB = 0x00;
  4428     0C34  018D               	clrf	13	;volatile
  4429     0C35                     l2308:
  4430                           
  4431                           ;mcc_generated_files/pin_manager.c: 66:     TRISA = 0x21;
  4432     0C35  3021               	movlw	33
  4433     0C36  0021               	movlb	1	; select bank1
  4434     0C37  008C               	movwf	12	;volatile
  4435     0C38                     l2310:
  4436                           
  4437                           ;mcc_generated_files/pin_manager.c: 67:     TRISB = 0xC6;
  4438     0C38  30C6               	movlw	198
  4439     0C39  008D               	movwf	13	;volatile
  4440     0C3A                     l2312:
  4441                           
  4442                           ;mcc_generated_files/pin_manager.c: 72:     ANSELB = 0xF8;
  4443     0C3A  30F8               	movlw	248
  4444     0C3B  0023               	movlb	3	; select bank3
  4445     0C3C  008D               	movwf	13	;volatile
  4446     0C3D                     l2314:
  4447                           
  4448                           ;mcc_generated_files/pin_manager.c: 73:     ANSELA = 0x1F;
  4449     0C3D  301F               	movlw	31
  4450     0C3E  008C               	movwf	12	;volatile
  4451                           
  4452                           ;mcc_generated_files/pin_manager.c: 78:     WPUB = 0x00;
  4453     0C3F  0024               	movlb	4	; select bank4
  4454     0C40  018D               	clrf	13	;volatile
  4455                           
  4456                           ;mcc_generated_files/pin_manager.c: 79:     WPUA = 0x00;
  4457     0C41  018C               	clrf	12	;volatile
  4458     0C42                     l2316:
  4459                           
  4460                           ;mcc_generated_files/pin_manager.c: 80:     OPTION_REGbits.nWPUEN = 1;
  4461     0C42  0021               	movlb	1	; select bank1
  4462     0C43  1795               	bsf	21,7	;volatile
  4463                           
  4464                           ;mcc_generated_files/pin_manager.c: 86:     APFCON0 = 0x00;
  4465     0C44  0022               	movlb	2	; select bank2
  4466     0C45  019D               	clrf	29	;volatile
  4467                           
  4468                           ;mcc_generated_files/pin_manager.c: 87:     APFCON1 = 0x00;
  4469     0C46  019E               	clrf	30	;volatile
  4470     0C47                     l56:
  4471     0C47  0008               	return
  4472     0C48                     __end_of_PIN_MANAGER_Initialize:
  4473                           
  4474                           	psect	text18
  4475     0BD5                     __ptext18:	
  4476 ;; *************** function _OSCILLATOR_Initialize *****************
  4477 ;; Defined at:
  4478 ;;		line 62 in file "mcc_generated_files/mcc.c"
  4479 ;; Parameters:    Size  Location     Type
  4480 ;;		None
  4481 ;; Auto vars:     Size  Location     Type
  4482 ;;		None
  4483 ;; Return value:  Size  Location     Type
  4484 ;;                  1    wreg      void 
  4485 ;; Registers used:
  4486 ;;		wreg, status,2
  4487 ;; Tracked objects:
  4488 ;;		On entry : 0/0
  4489 ;;		On exit  : 0/0
  4490 ;;		Unchanged: 0/0
  4491 ;; Data sizes:     COMMON   BANK0   BANK1   BANK2   BANK3   BANK4
  4492 ;;      Params:         0       0       0       0       0       0
  4493 ;;      Locals:         0       0       0       0       0       0
  4494 ;;      Temps:          0       0       0       0       0       0
  4495 ;;      Totals:         0       0       0       0       0       0
  4496 ;;Total ram usage:        0 bytes
  4497 ;; Hardware stack levels used: 1
  4498 ;; This function calls:
  4499 ;;		Nothing
  4500 ;; This function is called by:
  4501 ;;		_SYSTEM_Initialize
  4502 ;; This function uses a non-reentrant model
  4503 ;;
  4504                           
  4505     0BD5                     _OSCILLATOR_Initialize:	
  4506                           ;psect for function _OSCILLATOR_Initialize
  4507                           
  4508     0BD5                     l2318:	
  4509                           ;incstack = 0
  4510                           ; Regs used in _OSCILLATOR_Initialize: [wreg+status,2]
  4511                           
  4512                           
  4513                           ;mcc_generated_files/mcc.c: 65:     OSCCON = 0x72;
  4514     0BD5  3072               	movlw	114
  4515     0BD6  0021               	movlb	1	; select bank1
  4516     0BD7  0099               	movwf	25	;volatile
  4517     0BD8                     l2320:
  4518                           
  4519                           ;mcc_generated_files/mcc.c: 67:     OSCTUNE = 0x00;
  4520     0BD8  0198               	clrf	24	;volatile
  4521     0BD9                     l2322:
  4522                           
  4523                           ;mcc_generated_files/mcc.c: 69:     BORCON = 0x00;
  4524     0BD9  0022               	movlb	2	; select bank2
  4525     0BDA  0196               	clrf	22	;volatile
  4526     0BDB                     l28:
  4527     0BDB  0008               	return
  4528     0BDC                     __end_of_OSCILLATOR_Initialize:
  4529                           
  4530                           	psect	text19
  4531     0BAE                     __ptext19:	
  4532 ;; *************** function _FVR_Initialize *****************
  4533 ;; Defined at:
  4534 ;;		line 58 in file "mcc_generated_files/fvr.c"
  4535 ;; Parameters:    Size  Location     Type
  4536 ;;		None
  4537 ;; Auto vars:     Size  Location     Type
  4538 ;;		None
  4539 ;; Return value:  Size  Location     Type
  4540 ;;                  1    wreg      void 
  4541 ;; Registers used:
  4542 ;;		wreg
  4543 ;; Tracked objects:
  4544 ;;		On entry : 0/0
  4545 ;;		On exit  : 0/0
  4546 ;;		Unchanged: 0/0
  4547 ;; Data sizes:     COMMON   BANK0   BANK1   BANK2   BANK3   BANK4
  4548 ;;      Params:         0       0       0       0       0       0
  4549 ;;      Locals:         0       0       0       0       0       0
  4550 ;;      Temps:          0       0       0       0       0       0
  4551 ;;      Totals:         0       0       0       0       0       0
  4552 ;;Total ram usage:        0 bytes
  4553 ;; Hardware stack levels used: 1
  4554 ;; This function calls:
  4555 ;;		Nothing
  4556 ;; This function is called by:
  4557 ;;		_SYSTEM_Initialize
  4558 ;; This function uses a non-reentrant model
  4559 ;;
  4560                           
  4561     0BAE                     _FVR_Initialize:	
  4562                           ;psect for function _FVR_Initialize
  4563                           
  4564     0BAE                     l2326:	
  4565                           ;incstack = 0
  4566                           ; Regs used in _FVR_Initialize: [wreg]
  4567                           
  4568                           
  4569                           ;mcc_generated_files/fvr.c: 61:     FVRCON = 0x8A;
  4570     0BAE  308A               	movlw	138
  4571     0BAF  0022               	movlb	2	; select bank2
  4572     0BB0  0097               	movwf	23	;volatile
  4573     0BB1                     l192:
  4574     0BB1  0008               	return
  4575     0BB2                     __end_of_FVR_Initialize:
  4576                           
  4577                           	psect	text20
  4578     0CD5                     __ptext20:	
  4579 ;; *************** function _EUSART_Initialize *****************
  4580 ;; Defined at:
  4581 ;;		line 66 in file "mcc_generated_files/eusart.c"
  4582 ;; Parameters:    Size  Location     Type
  4583 ;;		None
  4584 ;; Auto vars:     Size  Location     Type
  4585 ;;		None
  4586 ;; Return value:  Size  Location     Type
  4587 ;;                  1    wreg      void 
  4588 ;; Registers used:
  4589 ;;		wreg, status,2, status,0, pclath, cstack
  4590 ;; Tracked objects:
  4591 ;;		On entry : 0/0
  4592 ;;		On exit  : 0/0
  4593 ;;		Unchanged: 0/0
  4594 ;; Data sizes:     COMMON   BANK0   BANK1   BANK2   BANK3   BANK4
  4595 ;;      Params:         0       0       0       0       0       0
  4596 ;;      Locals:         0       0       0       0       0       0
  4597 ;;      Temps:          0       0       0       0       0       0
  4598 ;;      Totals:         0       0       0       0       0       0
  4599 ;;Total ram usage:        0 bytes
  4600 ;; Hardware stack levels used: 1
  4601 ;; Hardware stack levels required when called: 1
  4602 ;; This function calls:
  4603 ;;		_EUSART_SetErrorHandler
  4604 ;;		_EUSART_SetFramingErrorHandler
  4605 ;;		_EUSART_SetOverrunErrorHandler
  4606 ;; This function is called by:
  4607 ;;		_SYSTEM_Initialize
  4608 ;; This function uses a non-reentrant model
  4609 ;;
  4610                           
  4611     0CD5                     _EUSART_Initialize:	
  4612                           ;psect for function _EUSART_Initialize
  4613                           
  4614     0CD5                     l2342:	
  4615                           ;incstack = 0
  4616                           ; Regs used in _EUSART_Initialize: [wreg+status,2+status,0+pclath+cstack]
  4617                           
  4618                           
  4619                           ;mcc_generated_files/eusart.c: 71:     BAUDCON = 0x08;
  4620     0CD5  3008               	movlw	8
  4621     0CD6  0023               	movlb	3	; select bank3
  4622     0CD7  009F               	movwf	31	;volatile
  4623                           
  4624                           ;mcc_generated_files/eusart.c: 74:     RCSTA = 0x90;
  4625     0CD8  3090               	movlw	144
  4626     0CD9  009D               	movwf	29	;volatile
  4627                           
  4628                           ;mcc_generated_files/eusart.c: 77:     TXSTA = 0x24;
  4629     0CDA  3024               	movlw	36
  4630     0CDB  009E               	movwf	30	;volatile
  4631                           
  4632                           ;mcc_generated_files/eusart.c: 80:     SPBRGL = 0xCF;
  4633     0CDC  30CF               	movlw	207
  4634     0CDD  009B               	movwf	27	;volatile
  4635     0CDE                     l2344:
  4636                           
  4637                           ;mcc_generated_files/eusart.c: 83:     SPBRGH = 0x00;
  4638     0CDE  019C               	clrf	28	;volatile
  4639     0CDF                     l2346:
  4640                           
  4641                           ;mcc_generated_files/eusart.c: 86:     EUSART_SetFramingErrorHandler(EUSART_DefaultFrami
      +                          ngErrorHandler);
  4642     0CDF  3000               	movlw	0
  4643     0CE0  00F0               	movwf	EUSART_SetFramingErrorHandler@interruptHandler
  4644     0CE1  3000               	movlw	0
  4645     0CE2  00F1               	movwf	EUSART_SetFramingErrorHandler@interruptHandler+1
  4646     0CE3  318B  23C2  318C   	fcall	_EUSART_SetFramingErrorHandler
  4647     0CE6                     l2348:
  4648                           
  4649                           ;mcc_generated_files/eusart.c: 87:     EUSART_SetOverrunErrorHandler(EUSART_DefaultOverr
      +                          unErrorHandler);
  4650     0CE6  3000               	movlw	0
  4651     0CE7  00F0               	movwf	EUSART_SetOverrunErrorHandler@interruptHandler
  4652     0CE8  3000               	movlw	0
  4653     0CE9  00F1               	movwf	EUSART_SetOverrunErrorHandler@interruptHandler+1
  4654     0CEA  318B  23C8  318C   	fcall	_EUSART_SetOverrunErrorHandler
  4655     0CED                     l2350:
  4656                           
  4657                           ;mcc_generated_files/eusart.c: 88:     EUSART_SetErrorHandler(EUSART_DefaultErrorHandler
      +                          );
  4658     0CED  3000               	movlw	0
  4659     0CEE  00F0               	movwf	EUSART_SetErrorHandler@interruptHandler
  4660     0CEF  3000               	movlw	0
  4661     0CF0  00F1               	movwf	EUSART_SetErrorHandler@interruptHandler+1
  4662     0CF1  318B  23BC  318C   	fcall	_EUSART_SetErrorHandler
  4663     0CF4                     l2352:
  4664                           
  4665                           ;mcc_generated_files/eusart.c: 90:     eusartRxLastError.status = 0;
  4666     0CF4  0021               	movlb	1	; select bank1
  4667     0CF5  01CD               	clrf	_eusartRxLastError^(0+128)	;volatile
  4668     0CF6                     l102:
  4669     0CF6  0008               	return
  4670     0CF7                     __end_of_EUSART_Initialize:
  4671                           
  4672                           	psect	text21
  4673     0BC8                     __ptext21:	
  4674 ;; *************** function _EUSART_SetOverrunErrorHandler *****************
  4675 ;; Defined at:
  4676 ;;		line 161 in file "mcc_generated_files/eusart.c"
  4677 ;; Parameters:    Size  Location     Type
  4678 ;;  interruptHan    2    0[COMMON] PTR FTN()void 
  4679 ;;		 -> EUSART_DefaultOverrunErrorHandler(1), 
  4680 ;; Auto vars:     Size  Location     Type
  4681 ;;		None
  4682 ;; Return value:  Size  Location     Type
  4683 ;;                  1    wreg      void 
  4684 ;; Registers used:
  4685 ;;		wreg
  4686 ;; Tracked objects:
  4687 ;;		On entry : 0/0
  4688 ;;		On exit  : 0/0
  4689 ;;		Unchanged: 0/0
  4690 ;; Data sizes:     COMMON   BANK0   BANK1   BANK2   BANK3   BANK4
  4691 ;;      Params:         2       0       0       0       0       0
  4692 ;;      Locals:         0       0       0       0       0       0
  4693 ;;      Temps:          0       0       0       0       0       0
  4694 ;;      Totals:         2       0       0       0       0       0
  4695 ;;Total ram usage:        2 bytes
  4696 ;; Hardware stack levels used: 1
  4697 ;; This function calls:
  4698 ;;		Nothing
  4699 ;; This function is called by:
  4700 ;;		_EUSART_Initialize
  4701 ;; This function uses a non-reentrant model
  4702 ;;
  4703                           
  4704     0BC8                     _EUSART_SetOverrunErrorHandler:	
  4705                           ;psect for function _EUSART_SetOverrunErrorHandler
  4706                           
  4707     0BC8                     l2094:	
  4708                           ;incstack = 0
  4709                           ; Regs used in _EUSART_SetOverrunErrorHandler: [wreg]
  4710                           
  4711                           
  4712                           ;mcc_generated_files/eusart.c: 162:     EUSART_OverrunErrorHandler = interruptHandler;
  4713     0BC8  0871               	movf	EUSART_SetOverrunErrorHandler@interruptHandler+1,w
  4714     0BC9  0021               	movlb	1	; select bank1
  4715     0BCA  00D1               	movwf	(_EUSART_OverrunErrorHandler+1)^(0+128)
  4716     0BCB  0870               	movf	EUSART_SetOverrunErrorHandler@interruptHandler,w
  4717     0BCC  00D0               	movwf	_EUSART_OverrunErrorHandler^(0+128)
  4718     0BCD                     l144:
  4719     0BCD  0008               	return
  4720     0BCE                     __end_of_EUSART_SetOverrunErrorHandler:
  4721                           
  4722                           	psect	text22
  4723     0BC2                     __ptext22:	
  4724 ;; *************** function _EUSART_SetFramingErrorHandler *****************
  4725 ;; Defined at:
  4726 ;;		line 157 in file "mcc_generated_files/eusart.c"
  4727 ;; Parameters:    Size  Location     Type
  4728 ;;  interruptHan    2    0[COMMON] PTR FTN()void 
  4729 ;;		 -> EUSART_DefaultFramingErrorHandler(1), 
  4730 ;; Auto vars:     Size  Location     Type
  4731 ;;		None
  4732 ;; Return value:  Size  Location     Type
  4733 ;;                  1    wreg      void 
  4734 ;; Registers used:
  4735 ;;		wreg
  4736 ;; Tracked objects:
  4737 ;;		On entry : 0/0
  4738 ;;		On exit  : 0/0
  4739 ;;		Unchanged: 0/0
  4740 ;; Data sizes:     COMMON   BANK0   BANK1   BANK2   BANK3   BANK4
  4741 ;;      Params:         2       0       0       0       0       0
  4742 ;;      Locals:         0       0       0       0       0       0
  4743 ;;      Temps:          0       0       0       0       0       0
  4744 ;;      Totals:         2       0       0       0       0       0
  4745 ;;Total ram usage:        2 bytes
  4746 ;; Hardware stack levels used: 1
  4747 ;; This function calls:
  4748 ;;		Nothing
  4749 ;; This function is called by:
  4750 ;;		_EUSART_Initialize
  4751 ;; This function uses a non-reentrant model
  4752 ;;
  4753                           
  4754     0BC2                     _EUSART_SetFramingErrorHandler:	
  4755                           ;psect for function _EUSART_SetFramingErrorHandler
  4756                           
  4757     0BC2                     l2092:	
  4758                           ;incstack = 0
  4759                           ; Regs used in _EUSART_SetFramingErrorHandler: [wreg]
  4760                           
  4761                           
  4762                           ;mcc_generated_files/eusart.c: 158:     EUSART_FramingErrorHandler = interruptHandler;
  4763     0BC2  0871               	movf	EUSART_SetFramingErrorHandler@interruptHandler+1,w
  4764     0BC3  0021               	movlb	1	; select bank1
  4765     0BC4  00D3               	movwf	(_EUSART_FramingErrorHandler+1)^(0+128)
  4766     0BC5  0870               	movf	EUSART_SetFramingErrorHandler@interruptHandler,w
  4767     0BC6  00D2               	movwf	_EUSART_FramingErrorHandler^(0+128)
  4768     0BC7                     l141:
  4769     0BC7  0008               	return
  4770     0BC8                     __end_of_EUSART_SetFramingErrorHandler:
  4771                           
  4772                           	psect	text23
  4773     0BBC                     __ptext23:	
  4774 ;; *************** function _EUSART_SetErrorHandler *****************
  4775 ;; Defined at:
  4776 ;;		line 165 in file "mcc_generated_files/eusart.c"
  4777 ;; Parameters:    Size  Location     Type
  4778 ;;  interruptHan    2    0[COMMON] PTR FTN()void 
  4779 ;;		 -> EUSART_DefaultErrorHandler(1), 
  4780 ;; Auto vars:     Size  Location     Type
  4781 ;;		None
  4782 ;; Return value:  Size  Location     Type
  4783 ;;                  1    wreg      void 
  4784 ;; Registers used:
  4785 ;;		wreg
  4786 ;; Tracked objects:
  4787 ;;		On entry : 0/0
  4788 ;;		On exit  : 0/0
  4789 ;;		Unchanged: 0/0
  4790 ;; Data sizes:     COMMON   BANK0   BANK1   BANK2   BANK3   BANK4
  4791 ;;      Params:         2       0       0       0       0       0
  4792 ;;      Locals:         0       0       0       0       0       0
  4793 ;;      Temps:          0       0       0       0       0       0
  4794 ;;      Totals:         2       0       0       0       0       0
  4795 ;;Total ram usage:        2 bytes
  4796 ;; Hardware stack levels used: 1
  4797 ;; This function calls:
  4798 ;;		Nothing
  4799 ;; This function is called by:
  4800 ;;		_EUSART_Initialize
  4801 ;; This function uses a non-reentrant model
  4802 ;;
  4803                           
  4804     0BBC                     _EUSART_SetErrorHandler:	
  4805                           ;psect for function _EUSART_SetErrorHandler
  4806                           
  4807     0BBC                     l2096:	
  4808                           ;incstack = 0
  4809                           ; Regs used in _EUSART_SetErrorHandler: [wreg]
  4810                           
  4811                           
  4812                           ;mcc_generated_files/eusart.c: 166:     EUSART_ErrorHandler = interruptHandler;
  4813     0BBC  0871               	movf	EUSART_SetErrorHandler@interruptHandler+1,w
  4814     0BBD  0021               	movlb	1	; select bank1
  4815     0BBE  00CF               	movwf	(_EUSART_ErrorHandler+1)^(0+128)
  4816     0BBF  0870               	movf	EUSART_SetErrorHandler@interruptHandler,w
  4817     0BC0  00CE               	movwf	_EUSART_ErrorHandler^(0+128)
  4818     0BC1                     l147:
  4819     0BC1  0008               	return
  4820     0BC2                     __end_of_EUSART_SetErrorHandler:
  4821                           
  4822                           	psect	text24
  4823     0BDC                     __ptext24:	
  4824 ;; *************** function _ADC_Initialize *****************
  4825 ;; Defined at:
  4826 ;;		line 67 in file "mcc_generated_files/adc.c"
  4827 ;; Parameters:    Size  Location     Type
  4828 ;;		None
  4829 ;; Auto vars:     Size  Location     Type
  4830 ;;		None
  4831 ;; Return value:  Size  Location     Type
  4832 ;;                  1    wreg      void 
  4833 ;; Registers used:
  4834 ;;		wreg, status,2
  4835 ;; Tracked objects:
  4836 ;;		On entry : 0/0
  4837 ;;		On exit  : 0/0
  4838 ;;		Unchanged: 0/0
  4839 ;; Data sizes:     COMMON   BANK0   BANK1   BANK2   BANK3   BANK4
  4840 ;;      Params:         0       0       0       0       0       0
  4841 ;;      Locals:         0       0       0       0       0       0
  4842 ;;      Temps:          0       0       0       0       0       0
  4843 ;;      Totals:         0       0       0       0       0       0
  4844 ;;Total ram usage:        0 bytes
  4845 ;; Hardware stack levels used: 1
  4846 ;; This function calls:
  4847 ;;		Nothing
  4848 ;; This function is called by:
  4849 ;;		_SYSTEM_Initialize
  4850 ;; This function uses a non-reentrant model
  4851 ;;
  4852                           
  4853     0BDC                     _ADC_Initialize:	
  4854                           ;psect for function _ADC_Initialize
  4855                           
  4856     0BDC                     l2328:	
  4857                           ;incstack = 0
  4858                           ; Regs used in _ADC_Initialize: [wreg+status,2]
  4859                           
  4860                           
  4861                           ;mcc_generated_files/adc.c: 72:     ADCON1 = 0x93;
  4862     0BDC  3093               	movlw	147
  4863     0BDD  0021               	movlb	1	; select bank1
  4864     0BDE  009E               	movwf	30	;volatile
  4865     0BDF                     l2330:
  4866                           
  4867                           ;mcc_generated_files/adc.c: 75:     ADRESL = 0x00;
  4868     0BDF  019B               	clrf	27	;volatile
  4869     0BE0                     l2332:
  4870                           
  4871                           ;mcc_generated_files/adc.c: 78:     ADRESH = 0x00;
  4872     0BE0  019C               	clrf	28	;volatile
  4873                           
  4874                           ;mcc_generated_files/adc.c: 81:     ADCON0 = 0x01;
  4875     0BE1  3001               	movlw	1
  4876     0BE2  009D               	movwf	29	;volatile
  4877     0BE3                     l164:
  4878     0BE3  0008               	return
  4879     0BE4                     __end_of_ADC_Initialize:
  4880                           
  4881                           	psect	text25
  4882     0C23                     __ptext25:	
  4883 ;; *************** function _EUSART_is_tx_ready *****************
  4884 ;; Defined at:
  4885 ;;		line 94 in file "mcc_generated_files/eusart.c"
  4886 ;; Parameters:    Size  Location     Type
  4887 ;;		None
  4888 ;; Auto vars:     Size  Location     Type
  4889 ;;		None
  4890 ;; Return value:  Size  Location     Type
  4891 ;;                  1    wreg      _Bool 
  4892 ;; Registers used:
  4893 ;;		wreg, status,2
  4894 ;; Tracked objects:
  4895 ;;		On entry : 0/0
  4896 ;;		On exit  : 0/0
  4897 ;;		Unchanged: 0/0
  4898 ;; Data sizes:     COMMON   BANK0   BANK1   BANK2   BANK3   BANK4
  4899 ;;      Params:         0       0       0       0       0       0
  4900 ;;      Locals:         1       0       0       0       0       0
  4901 ;;      Temps:          0       0       0       0       0       0
  4902 ;;      Totals:         1       0       0       0       0       0
  4903 ;;Total ram usage:        1 bytes
  4904 ;; Hardware stack levels used: 1
  4905 ;; This function calls:
  4906 ;;		Nothing
  4907 ;; This function is called by:
  4908 ;;		_main
  4909 ;; This function uses a non-reentrant model
  4910 ;;
  4911                           
  4912     0C23                     _EUSART_is_tx_ready:	
  4913                           ;psect for function _EUSART_is_tx_ready
  4914                           
  4915     0C23                     l2736:	
  4916                           ;incstack = 0
  4917                           ; Regs used in _EUSART_is_tx_ready: [wreg+status,2]
  4918                           
  4919                           
  4920                           ;mcc_generated_files/eusart.c: 96:     return (_Bool)(PIR1bits.TXIF && TXSTAbits.TXEN);
  4921     0C23  01F0               	clrf	_EUSART_is_tx_ready$254
  4922     0C24                     l2738:
  4923     0C24  0020               	movlb	0	; select bank0
  4924     0C25  1E11               	btfss	17,4	;volatile
  4925     0C26  2C28               	goto	u2741
  4926     0C27  2C29               	goto	u2740
  4927     0C28                     u2741:
  4928     0C28  2C30               	goto	l2744
  4929     0C29                     u2740:
  4930     0C29                     l2740:
  4931     0C29  0023               	movlb	3	; select bank3
  4932     0C2A  1E9E               	btfss	30,5	;volatile
  4933     0C2B  2C2D               	goto	u2751
  4934     0C2C  2C2E               	goto	u2750
  4935     0C2D                     u2751:
  4936     0C2D  2C30               	goto	l2744
  4937     0C2E                     u2750:
  4938     0C2E                     l2742:
  4939     0C2E  01F0               	clrf	_EUSART_is_tx_ready$254
  4940     0C2F  0AF0               	incf	_EUSART_is_tx_ready$254,f
  4941     0C30                     l2744:
  4942     0C30  0870               	movf	_EUSART_is_tx_ready$254,w
  4943     0C31                     l107:
  4944     0C31  0008               	return
  4945     0C32                     __end_of_EUSART_is_tx_ready:
  4946                           
  4947                           	psect	text26
  4948     0BAB                     __ptext26:	
  4949 ;; *************** function _ADC_StartConversion *****************
  4950 ;; Defined at:
  4951 ;;		line 93 in file "mcc_generated_files/adc.c"
  4952 ;; Parameters:    Size  Location     Type
  4953 ;;		None
  4954 ;; Auto vars:     Size  Location     Type
  4955 ;;		None
  4956 ;; Return value:  Size  Location     Type
  4957 ;;                  1    wreg      void 
  4958 ;; Registers used:
  4959 ;;		None
  4960 ;; Tracked objects:
  4961 ;;		On entry : 0/0
  4962 ;;		On exit  : 0/0
  4963 ;;		Unchanged: 0/0
  4964 ;; Data sizes:     COMMON   BANK0   BANK1   BANK2   BANK3   BANK4
  4965 ;;      Params:         0       0       0       0       0       0
  4966 ;;      Locals:         0       0       0       0       0       0
  4967 ;;      Temps:          0       0       0       0       0       0
  4968 ;;      Totals:         0       0       0       0       0       0
  4969 ;;Total ram usage:        0 bytes
  4970 ;; Hardware stack levels used: 1
  4971 ;; This function calls:
  4972 ;;		Nothing
  4973 ;; This function is called by:
  4974 ;;		_main
  4975 ;; This function uses a non-reentrant model
  4976 ;;
  4977                           
  4978     0BAB                     _ADC_StartConversion:	
  4979                           ;psect for function _ADC_StartConversion
  4980                           
  4981     0BAB                     l2748:	
  4982                           ;incstack = 0
  4983                           ; Regs used in _ADC_StartConversion: []
  4984                           
  4985                           
  4986                           ;mcc_generated_files/adc.c: 96:     ADCON0bits.GO_nDONE = 1;
  4987     0BAB  0021               	movlb	1	; select bank1
  4988     0BAC  149D               	bsf	29,1	;volatile
  4989     0BAD                     l170:
  4990     0BAD  0008               	return
  4991     0BAE                     __end_of_ADC_StartConversion:
  4992                           
  4993                           	psect	text27
  4994     0BCE                     __ptext27:	
  4995 ;; *************** function _ADC_IsConversionDone *****************
  4996 ;; Defined at:
  4997 ;;		line 100 in file "mcc_generated_files/adc.c"
  4998 ;; Parameters:    Size  Location     Type
  4999 ;;		None
  5000 ;; Auto vars:     Size  Location     Type
  5001 ;;		None
  5002 ;; Return value:  Size  Location     Type
  5003 ;;                  1    wreg      _Bool 
  5004 ;; Registers used:
  5005 ;;		wreg, status,0
  5006 ;; Tracked objects:
  5007 ;;		On entry : 0/0
  5008 ;;		On exit  : 0/0
  5009 ;;		Unchanged: 0/0
  5010 ;; Data sizes:     COMMON   BANK0   BANK1   BANK2   BANK3   BANK4
  5011 ;;      Params:         0       0       0       0       0       0
  5012 ;;      Locals:         0       0       0       0       0       0
  5013 ;;      Temps:          0       0       0       0       0       0
  5014 ;;      Totals:         0       0       0       0       0       0
  5015 ;;Total ram usage:        0 bytes
  5016 ;; Hardware stack levels used: 1
  5017 ;; This function calls:
  5018 ;;		Nothing
  5019 ;; This function is called by:
  5020 ;;		_main
  5021 ;; This function uses a non-reentrant model
  5022 ;;
  5023                           
  5024     0BCE                     _ADC_IsConversionDone:	
  5025                           ;psect for function _ADC_IsConversionDone
  5026                           
  5027     0BCE                     l2750:	
  5028                           ;incstack = 0
  5029                           ; Regs used in _ADC_IsConversionDone: [wreg+status,0]
  5030                           
  5031                           
  5032                           ;mcc_generated_files/adc.c: 103:    return ((_Bool)(!ADCON0bits.GO_nDONE));
  5033     0BCE  1003               	clrc
  5034     0BCF  0021               	movlb	1	; select bank1
  5035     0BD0  1C9D               	btfss	29,1	;volatile
  5036     0BD1  1403               	setc
  5037     0BD2  3000               	movlw	0
  5038     0BD3  3D09               	addwfc	9,w
  5039     0BD4                     l173:
  5040     0BD4  0008               	return
  5041     0BD5                     __end_of_ADC_IsConversionDone:
  5042                           
  5043                           	psect	text28
  5044     0BB6                     __ptext28:	
  5045 ;; *************** function _ADC_GetConversionResult *****************
  5046 ;; Defined at:
  5047 ;;		line 106 in file "mcc_generated_files/adc.c"
  5048 ;; Parameters:    Size  Location     Type
  5049 ;;		None
  5050 ;; Auto vars:     Size  Location     Type
  5051 ;;		None
  5052 ;; Return value:  Size  Location     Type
  5053 ;;                  2    0[COMMON] unsigned short 
  5054 ;; Registers used:
  5055 ;;		wreg
  5056 ;; Tracked objects:
  5057 ;;		On entry : 0/0
  5058 ;;		On exit  : 0/0
  5059 ;;		Unchanged: 0/0
  5060 ;; Data sizes:     COMMON   BANK0   BANK1   BANK2   BANK3   BANK4
  5061 ;;      Params:         2       0       0       0       0       0
  5062 ;;      Locals:         0       0       0       0       0       0
  5063 ;;      Temps:          0       0       0       0       0       0
  5064 ;;      Totals:         2       0       0       0       0       0
  5065 ;;Total ram usage:        2 bytes
  5066 ;; Hardware stack levels used: 1
  5067 ;; This function calls:
  5068 ;;		Nothing
  5069 ;; This function is called by:
  5070 ;;		_main
  5071 ;; This function uses a non-reentrant model
  5072 ;;
  5073                           
  5074     0BB6                     _ADC_GetConversionResult:	
  5075                           ;psect for function _ADC_GetConversionResult
  5076                           
  5077     0BB6                     l2754:	
  5078                           ;incstack = 0
  5079                           ; Regs used in _ADC_GetConversionResult: [wreg]
  5080                           
  5081                           
  5082                           ;mcc_generated_files/adc.c: 109:     return ((adc_result_t)((ADRESH << 8) + ADRESL));
  5083     0BB6  0021               	movlb	1	; select bank1
  5084     0BB7  081C               	movf	28,w	;volatile
  5085     0BB8  00F1               	movwf	?_ADC_GetConversionResult+1
  5086     0BB9  081B               	movf	27,w	;volatile
  5087     0BBA  00F0               	movwf	?_ADC_GetConversionResult
  5088     0BBB                     l176:
  5089     0BBB  0008               	return
  5090     0BBC                     __end_of_ADC_GetConversionResult:
  5091                           
  5092                           	psect	text29
  5093     0072                     __ptext29:	
  5094 ;; *************** function _ADC2Display *****************
  5095 ;; Defined at:
  5096 ;;		line 30 in file "nuestrodisplay.c"
  5097 ;; Parameters:    Size  Location     Type
  5098 ;;  dis             1    wreg     PTR struct Ds_Display
  5099 ;;		 -> main@miDisplay(5), 
  5100 ;;  adcVal          2   78[BANK0 ] unsigned short 
  5101 ;; Auto vars:     Size  Location     Type
  5102 ;;  dis             1   13[BANK1 ] PTR struct Ds_Display
  5103 ;;		 -> main@miDisplay(5), 
  5104 ;;  voltios         4    9[BANK1 ] float 
  5105 ;;  aux             1    8[BANK1 ] unsigned char 
  5106 ;; Return value:  Size  Location     Type
  5107 ;;                  1    wreg      void 
  5108 ;; Registers used:
  5109 ;;		wreg, fsr0l, fsr0h, fsr1l, fsr1h, status,2, status,0, pclath, cstack
  5110 ;; Tracked objects:
  5111 ;;		On entry : 0/0
  5112 ;;		On exit  : 0/0
  5113 ;;		Unchanged: 0/0
  5114 ;; Data sizes:     COMMON   BANK0   BANK1   BANK2   BANK3   BANK4
  5115 ;;      Params:         0       2       0       0       0       0
  5116 ;;      Locals:         0       0      10       0       0       0
  5117 ;;      Temps:          0       0       4       0       0       0
  5118 ;;      Totals:         0       2      14       0       0       0
  5119 ;;Total ram usage:       16 bytes
  5120 ;; Hardware stack levels used: 1
  5121 ;; Hardware stack levels required when called: 2
  5122 ;; This function calls:
  5123 ;;		___fldiv
  5124 ;;		___flmul
  5125 ;;		___flsub
  5126 ;;		___fltol
  5127 ;;		___xxtofl
  5128 ;; This function is called by:
  5129 ;;		_main
  5130 ;; This function uses a non-reentrant model
  5131 ;;
  5132                           
  5133     0072                     _ADC2Display:	
  5134                           ;psect for function _ADC2Display
  5135                           
  5136                           
  5137                           ;incstack = 0
  5138                           ; Regs used in _ADC2Display: [wreg-fsr1h+status,2+status,0+pclath+cstack]
  5139                           ;ADC2Display@dis stored from wreg
  5140     0072  0021               	movlb	1	; select bank1
  5141     0073  00AD               	movwf	ADC2Display@dis^(0+128)
  5142     0074                     l2848:
  5143                           
  5144                           ;nuestrodisplay.c: 31:     char aux;;nuestrodisplay.c: 32:     float voltios = ((float)a
      +                          dcVal*10.0f)/1023.0f;
  5145     0074  3044               	movlw	68
  5146     0075  0020               	movlb	0	; select bank0
  5147     0076  00CD               	movwf	___fldiv@a+3
  5148     0077  307F               	movlw	127
  5149     0078  00CC               	movwf	___fldiv@a+2
  5150     0079  30C0               	movlw	192
  5151     007A  00CB               	movwf	___fldiv@a+1
  5152     007B  3000               	movlw	0
  5153     007C  00CA               	movwf	___fldiv@a
  5154     007D  3041               	movlw	65
  5155     007E  00B3               	movwf	___flmul@b+3
  5156     007F  3020               	movlw	32
  5157     0080  00B2               	movwf	___flmul@b+2
  5158     0081  3000               	movlw	0
  5159     0082  00B1               	movwf	___flmul@b+1
  5160     0083  3000               	movlw	0
  5161     0084  00B0               	movwf	___flmul@b
  5162     0085  086E               	movf	ADC2Display@adcVal,w
  5163     0086  00F0               	movwf	___xxtofl@val
  5164     0087  086F               	movf	ADC2Display@adcVal+1,w
  5165     0088  00F1               	movwf	___xxtofl@val+1
  5166     0089  01F2               	clrf	___xxtofl@val+2
  5167     008A  01F3               	clrf	___xxtofl@val+3
  5168     008B  3000               	movlw	0
  5169     008C  318F  2756  3180   	fcall	___xxtofl
  5170     008F  0873               	movf	?___xxtofl+3,w
  5171     0090  0020               	movlb	0	; select bank0
  5172     0091  00B7               	movwf	___flmul@a+3
  5173     0092  0872               	movf	?___xxtofl+2,w
  5174     0093  00B6               	movwf	___flmul@a+2
  5175     0094  0871               	movf	?___xxtofl+1,w
  5176     0095  00B5               	movwf	___flmul@a+1
  5177     0096  0870               	movf	?___xxtofl,w
  5178     0097  00B4               	movwf	___flmul@a
  5179     0098  3185  25B8  3180   	fcall	___flmul
  5180     009B  0020               	movlb	0	; select bank0
  5181     009C  0833               	movf	?___flmul+3,w
  5182     009D  00D1               	movwf	___fldiv@b+3
  5183     009E  0832               	movf	?___flmul+2,w
  5184     009F  00D0               	movwf	___fldiv@b+2
  5185     00A0  0831               	movf	?___flmul+1,w
  5186     00A1  00CF               	movwf	___fldiv@b+1
  5187     00A2  0830               	movf	?___flmul,w
  5188     00A3  00CE               	movwf	___fldiv@b
  5189     00A4  3182  2202  3180   	fcall	___fldiv
  5190     00A7  0020               	movlb	0	; select bank0
  5191     00A8  084D               	movf	?___fldiv+3,w
  5192     00A9  0021               	movlb	1	; select bank1
  5193     00AA  00AC               	movwf	(ADC2Display@voltios+3)^(0+128)
  5194     00AB  0020               	movlb	0	; select bank0
  5195     00AC  084C               	movf	?___fldiv+2,w
  5196     00AD  0021               	movlb	1	; select bank1
  5197     00AE  00AB               	movwf	(ADC2Display@voltios+2)^(0+128)
  5198     00AF  0020               	movlb	0	; select bank0
  5199     00B0  084B               	movf	?___fldiv+1,w
  5200     00B1  0021               	movlb	1	; select bank1
  5201     00B2  00AA               	movwf	(ADC2Display@voltios+1)^(0+128)
  5202     00B3  0020               	movlb	0	; select bank0
  5203     00B4  084A               	movf	?___fldiv,w
  5204     00B5  0021               	movlb	1	; select bank1
  5205     00B6  00A9               	movwf	ADC2Display@voltios^(0+128)
  5206     00B7                     l2850:
  5207                           
  5208                           ;nuestrodisplay.c: 33:     dis->Digito1 = (char)voltios;
  5209     00B7  082D               	movf	ADC2Display@dis^(0+128),w
  5210     00B8  0086               	movwf	6
  5211     00B9  0187               	clrf	7
  5212     00BA  082C               	movf	(ADC2Display@voltios+3)^(0+128),w
  5213     00BB  0020               	movlb	0	; select bank0
  5214     00BC  00E7               	movwf	___fltol@f1+3
  5215     00BD  0021               	movlb	1	; select bank1
  5216     00BE  082B               	movf	(ADC2Display@voltios+2)^(0+128),w
  5217     00BF  0020               	movlb	0	; select bank0
  5218     00C0  00E6               	movwf	___fltol@f1+2
  5219     00C1  0021               	movlb	1	; select bank1
  5220     00C2  082A               	movf	(ADC2Display@voltios+1)^(0+128),w
  5221     00C3  0020               	movlb	0	; select bank0
  5222     00C4  00E5               	movwf	___fltol@f1+1
  5223     00C5  0021               	movlb	1	; select bank1
  5224     00C6  0829               	movf	ADC2Display@voltios^(0+128),w
  5225     00C7  0020               	movlb	0	; select bank0
  5226     00C8  00E4               	movwf	___fltol@f1
  5227     00C9  318D  2567  3180   	fcall	___fltol
  5228     00CC  0020               	movlb	0	; select bank0
  5229     00CD  0864               	movf	?___fltol,w
  5230     00CE  0081               	movwf	1
  5231     00CF                     l2852:
  5232                           
  5233                           ;nuestrodisplay.c: 34:     dis->Digito2 = (char)((voltios-(dis->Digito1))*10.0f);
  5234     00CF  0021               	movlb	1	; select bank1
  5235     00D0  0A2D               	incf	ADC2Display@dis^(0+128),w
  5236     00D1  0086               	movwf	6
  5237     00D2  0187               	clrf	7
  5238     00D3  082C               	movf	(ADC2Display@voltios+3)^(0+128),w
  5239     00D4  0020               	movlb	0	; select bank0
  5240     00D5  00AF               	movwf	___flsub@b+3
  5241     00D6  0021               	movlb	1	; select bank1
  5242     00D7  082B               	movf	(ADC2Display@voltios+2)^(0+128),w
  5243     00D8  0020               	movlb	0	; select bank0
  5244     00D9  00AE               	movwf	___flsub@b+2
  5245     00DA  0021               	movlb	1	; select bank1
  5246     00DB  082A               	movf	(ADC2Display@voltios+1)^(0+128),w
  5247     00DC  0020               	movlb	0	; select bank0
  5248     00DD  00AD               	movwf	___flsub@b+1
  5249     00DE  0021               	movlb	1	; select bank1
  5250     00DF  0829               	movf	ADC2Display@voltios^(0+128),w
  5251     00E0  0020               	movlb	0	; select bank0
  5252     00E1  00AC               	movwf	___flsub@b
  5253     00E2  0021               	movlb	1	; select bank1
  5254     00E3  082D               	movf	ADC2Display@dis^(0+128),w
  5255     00E4  0084               	movwf	4
  5256     00E5  0185               	clrf	5
  5257     00E6  0800               	movf	0,w
  5258     00E7  00A0               	movwf	??_ADC2Display^(0+128)
  5259     00E8  01A1               	clrf	(??_ADC2Display^(0+128)+1)
  5260     00E9  01A2               	clrf	(??_ADC2Display^(0+128)+2)
  5261     00EA  01A3               	clrf	(??_ADC2Display^(0+128)+3)
  5262     00EB  0823               	movf	(??_ADC2Display+3)^(0+128),w
  5263     00EC  00F3               	movwf	___xxtofl@val+3
  5264     00ED  0822               	movf	(??_ADC2Display+2)^(0+128),w
  5265     00EE  00F2               	movwf	___xxtofl@val+2
  5266     00EF  0821               	movf	(??_ADC2Display+1)^(0+128),w
  5267     00F0  00F1               	movwf	___xxtofl@val+1
  5268     00F1  0820               	movf	??_ADC2Display^(0+128),w
  5269     00F2  00F0               	movwf	___xxtofl@val
  5270     00F3  3001               	movlw	1
  5271     00F4  318F  2756  3180   	fcall	___xxtofl
  5272     00F7  0873               	movf	?___xxtofl+3,w
  5273     00F8  0020               	movlb	0	; select bank0
  5274     00F9  00AB               	movwf	___flsub@a+3
  5275     00FA  0872               	movf	?___xxtofl+2,w
  5276     00FB  00AA               	movwf	___flsub@a+2
  5277     00FC  0871               	movf	?___xxtofl+1,w
  5278     00FD  00A9               	movwf	___flsub@a+1
  5279     00FE  0870               	movf	?___xxtofl,w
  5280     00FF  00A8               	movwf	___flsub@a
  5281     0100  318C  2494  3180   	fcall	___flsub
  5282     0103  0020               	movlb	0	; select bank0
  5283     0104  082B               	movf	?___flsub+3,w
  5284     0105  00B7               	movwf	___flmul@a+3
  5285     0106  082A               	movf	?___flsub+2,w
  5286     0107  00B6               	movwf	___flmul@a+2
  5287     0108  0829               	movf	?___flsub+1,w
  5288     0109  00B5               	movwf	___flmul@a+1
  5289     010A  0828               	movf	?___flsub,w
  5290     010B  00B4               	movwf	___flmul@a
  5291     010C  3041               	movlw	65
  5292     010D  00B3               	movwf	___flmul@b+3
  5293     010E  3020               	movlw	32
  5294     010F  00B2               	movwf	___flmul@b+2
  5295     0110  3000               	movlw	0
  5296     0111  00B1               	movwf	___flmul@b+1
  5297     0112  3000               	movlw	0
  5298     0113  00B0               	movwf	___flmul@b
  5299     0114  3185  25B8  3180   	fcall	___flmul
  5300     0117  0020               	movlb	0	; select bank0
  5301     0118  0833               	movf	?___flmul+3,w
  5302     0119  00E7               	movwf	___fltol@f1+3
  5303     011A  0832               	movf	?___flmul+2,w
  5304     011B  00E6               	movwf	___fltol@f1+2
  5305     011C  0831               	movf	?___flmul+1,w
  5306     011D  00E5               	movwf	___fltol@f1+1
  5307     011E  0830               	movf	?___flmul,w
  5308     011F  00E4               	movwf	___fltol@f1
  5309     0120  318D  2567  3180   	fcall	___fltol
  5310     0123  0020               	movlb	0	; select bank0
  5311     0124  0864               	movf	?___fltol,w
  5312     0125  0081               	movwf	1
  5313     0126                     l2854:
  5314                           
  5315                           ;nuestrodisplay.c: 35:     aux = dis->Digito2;
  5316     0126  0021               	movlb	1	; select bank1
  5317     0127  082D               	movf	ADC2Display@dis^(0+128),w
  5318     0128  0086               	movwf	6
  5319     0129  0187               	clrf	7
  5320     012A  3F41               	moviw [1]fsr1
  5321     012B  00A8               	movwf	ADC2Display@aux^(0+128)
  5322     012C                     l2856:
  5323                           
  5324                           ;nuestrodisplay.c: 36:     dis->Digito3 = (char)(((voltios-(float)(dis->Digito1)-((float
      +                          )aux/10.0f)))*100.0f);
  5325     012C  082C               	movf	(ADC2Display@voltios+3)^(0+128),w
  5326     012D  0020               	movlb	0	; select bank0
  5327     012E  00AF               	movwf	___flsub@b+3
  5328     012F  0021               	movlb	1	; select bank1
  5329     0130  082B               	movf	(ADC2Display@voltios+2)^(0+128),w
  5330     0131  0020               	movlb	0	; select bank0
  5331     0132  00AE               	movwf	___flsub@b+2
  5332     0133  0021               	movlb	1	; select bank1
  5333     0134  082A               	movf	(ADC2Display@voltios+1)^(0+128),w
  5334     0135  0020               	movlb	0	; select bank0
  5335     0136  00AD               	movwf	___flsub@b+1
  5336     0137  0021               	movlb	1	; select bank1
  5337     0138  0829               	movf	ADC2Display@voltios^(0+128),w
  5338     0139  0020               	movlb	0	; select bank0
  5339     013A  00AC               	movwf	___flsub@b
  5340     013B  0021               	movlb	1	; select bank1
  5341     013C  082D               	movf	ADC2Display@dis^(0+128),w
  5342     013D  0086               	movwf	6
  5343     013E  0187               	clrf	7
  5344     013F  0801               	movf	1,w
  5345     0140  00A0               	movwf	??_ADC2Display^(0+128)
  5346     0141  01A1               	clrf	(??_ADC2Display^(0+128)+1)
  5347     0142  01A2               	clrf	(??_ADC2Display^(0+128)+2)
  5348     0143  01A3               	clrf	(??_ADC2Display^(0+128)+3)
  5349     0144  0823               	movf	(??_ADC2Display+3)^(0+128),w
  5350     0145  00F3               	movwf	___xxtofl@val+3
  5351     0146  0822               	movf	(??_ADC2Display+2)^(0+128),w
  5352     0147  00F2               	movwf	___xxtofl@val+2
  5353     0148  0821               	movf	(??_ADC2Display+1)^(0+128),w
  5354     0149  00F1               	movwf	___xxtofl@val+1
  5355     014A  0820               	movf	??_ADC2Display^(0+128),w
  5356     014B  00F0               	movwf	___xxtofl@val
  5357     014C  3000               	movlw	0
  5358     014D  318F  2756  3180   	fcall	___xxtofl
  5359     0150  0873               	movf	?___xxtofl+3,w
  5360     0151  0020               	movlb	0	; select bank0
  5361     0152  00AB               	movwf	___flsub@a+3
  5362     0153  0872               	movf	?___xxtofl+2,w
  5363     0154  00AA               	movwf	___flsub@a+2
  5364     0155  0871               	movf	?___xxtofl+1,w
  5365     0156  00A9               	movwf	___flsub@a+1
  5366     0157  0870               	movf	?___xxtofl,w
  5367     0158  00A8               	movwf	___flsub@a
  5368     0159  318C  2494  3180   	fcall	___flsub
  5369     015C  0020               	movlb	0	; select bank0
  5370     015D  082B               	movf	?___flsub+3,w
  5371     015E  0021               	movlb	1	; select bank1
  5372     015F  00A7               	movwf	(_ADC2Display$1444+3)^(0+128)
  5373     0160  0020               	movlb	0	; select bank0
  5374     0161  082A               	movf	?___flsub+2,w
  5375     0162  0021               	movlb	1	; select bank1
  5376     0163  00A6               	movwf	(_ADC2Display$1444+2)^(0+128)
  5377     0164  0020               	movlb	0	; select bank0
  5378     0165  0829               	movf	?___flsub+1,w
  5379     0166  0021               	movlb	1	; select bank1
  5380     0167  00A5               	movwf	(_ADC2Display$1444+1)^(0+128)
  5381     0168  0020               	movlb	0	; select bank0
  5382     0169  0828               	movf	?___flsub,w
  5383     016A  0021               	movlb	1	; select bank1
  5384     016B  00A4               	movwf	_ADC2Display$1444^(0+128)
  5385     016C                     l2858:
  5386                           
  5387                           ;nuestrodisplay.c: 36:     dis->Digito3 = (char)(((voltios-(float)(dis->Digito1)-((float
      +                          )aux/10.0f)))*100.0f);
  5388     016C  082D               	movf	ADC2Display@dis^(0+128),w
  5389     016D  3E02               	addlw	2
  5390     016E  0086               	movwf	6
  5391     016F  0187               	clrf	7
  5392     0170  0827               	movf	(_ADC2Display$1444+3)^(0+128),w
  5393     0171  0020               	movlb	0	; select bank0
  5394     0172  00AF               	movwf	___flsub@b+3
  5395     0173  0021               	movlb	1	; select bank1
  5396     0174  0826               	movf	(_ADC2Display$1444+2)^(0+128),w
  5397     0175  0020               	movlb	0	; select bank0
  5398     0176  00AE               	movwf	___flsub@b+2
  5399     0177  0021               	movlb	1	; select bank1
  5400     0178  0825               	movf	(_ADC2Display$1444+1)^(0+128),w
  5401     0179  0020               	movlb	0	; select bank0
  5402     017A  00AD               	movwf	___flsub@b+1
  5403     017B  0021               	movlb	1	; select bank1
  5404     017C  0824               	movf	_ADC2Display$1444^(0+128),w
  5405     017D  0020               	movlb	0	; select bank0
  5406     017E  00AC               	movwf	___flsub@b
  5407     017F  0021               	movlb	1	; select bank1
  5408     0180  0828               	movf	ADC2Display@aux^(0+128),w
  5409     0181  00A0               	movwf	??_ADC2Display^(0+128)
  5410     0182  01A1               	clrf	(??_ADC2Display^(0+128)+1)
  5411     0183  01A2               	clrf	(??_ADC2Display^(0+128)+2)
  5412     0184  01A3               	clrf	(??_ADC2Display^(0+128)+3)
  5413     0185  0823               	movf	(??_ADC2Display+3)^(0+128),w
  5414     0186  00F3               	movwf	___xxtofl@val+3
  5415     0187  0822               	movf	(??_ADC2Display+2)^(0+128),w
  5416     0188  00F2               	movwf	___xxtofl@val+2
  5417     0189  0821               	movf	(??_ADC2Display+1)^(0+128),w
  5418     018A  00F1               	movwf	___xxtofl@val+1
  5419     018B  0820               	movf	??_ADC2Display^(0+128),w
  5420     018C  00F0               	movwf	___xxtofl@val
  5421     018D  3000               	movlw	0
  5422     018E  318F  2756  3180   	fcall	___xxtofl
  5423     0191  0873               	movf	?___xxtofl+3,w
  5424     0192  0020               	movlb	0	; select bank0
  5425     0193  00D1               	movwf	___fldiv@b+3
  5426     0194  0872               	movf	?___xxtofl+2,w
  5427     0195  00D0               	movwf	___fldiv@b+2
  5428     0196  0871               	movf	?___xxtofl+1,w
  5429     0197  00CF               	movwf	___fldiv@b+1
  5430     0198  0870               	movf	?___xxtofl,w
  5431     0199  00CE               	movwf	___fldiv@b
  5432     019A  3041               	movlw	65
  5433     019B  00CD               	movwf	___fldiv@a+3
  5434     019C  3020               	movlw	32
  5435     019D  00CC               	movwf	___fldiv@a+2
  5436     019E  3000               	movlw	0
  5437     019F  00CB               	movwf	___fldiv@a+1
  5438     01A0  3000               	movlw	0
  5439     01A1  00CA               	movwf	___fldiv@a
  5440     01A2  3182  2202  3180   	fcall	___fldiv
  5441     01A5  0020               	movlb	0	; select bank0
  5442     01A6  084D               	movf	?___fldiv+3,w
  5443     01A7  00AB               	movwf	___flsub@a+3
  5444     01A8  084C               	movf	?___fldiv+2,w
  5445     01A9  00AA               	movwf	___flsub@a+2
  5446     01AA  084B               	movf	?___fldiv+1,w
  5447     01AB  00A9               	movwf	___flsub@a+1
  5448     01AC  084A               	movf	?___fldiv,w
  5449     01AD  00A8               	movwf	___flsub@a
  5450     01AE  318C  2494  3180   	fcall	___flsub
  5451     01B1  0020               	movlb	0	; select bank0
  5452     01B2  082B               	movf	?___flsub+3,w
  5453     01B3  00B7               	movwf	___flmul@a+3
  5454     01B4  082A               	movf	?___flsub+2,w
  5455     01B5  00B6               	movwf	___flmul@a+2
  5456     01B6  0829               	movf	?___flsub+1,w
  5457     01B7  00B5               	movwf	___flmul@a+1
  5458     01B8  0828               	movf	?___flsub,w
  5459     01B9  00B4               	movwf	___flmul@a
  5460     01BA  3042               	movlw	66
  5461     01BB  00B3               	movwf	___flmul@b+3
  5462     01BC  30C8               	movlw	200
  5463     01BD  00B2               	movwf	___flmul@b+2
  5464     01BE  3000               	movlw	0
  5465     01BF  00B1               	movwf	___flmul@b+1
  5466     01C0  3000               	movlw	0
  5467     01C1  00B0               	movwf	___flmul@b
  5468     01C2  3185  25B8  3180   	fcall	___flmul
  5469     01C5  0020               	movlb	0	; select bank0
  5470     01C6  0833               	movf	?___flmul+3,w
  5471     01C7  00E7               	movwf	___fltol@f1+3
  5472     01C8  0832               	movf	?___flmul+2,w
  5473     01C9  00E6               	movwf	___fltol@f1+2
  5474     01CA  0831               	movf	?___flmul+1,w
  5475     01CB  00E5               	movwf	___fltol@f1+1
  5476     01CC  0830               	movf	?___flmul,w
  5477     01CD  00E4               	movwf	___fltol@f1
  5478     01CE  318D  2567  3180   	fcall	___fltol
  5479     01D1  0020               	movlb	0	; select bank0
  5480     01D2  0864               	movf	?___fltol,w
  5481     01D3  0081               	movwf	1
  5482     01D4                     l2860:
  5483                           
  5484                           ;nuestrodisplay.c: 37:     if(dis->Digito1>9||dis->Digito2>9||dis->Digito3>9){
  5485     01D4  0021               	movlb	1	; select bank1
  5486     01D5  082D               	movf	ADC2Display@dis^(0+128),w
  5487     01D6  0086               	movwf	6
  5488     01D7  0187               	clrf	7
  5489     01D8  300A               	movlw	10
  5490     01D9  0201               	subwf	1,w
  5491     01DA  1803               	skipnc
  5492     01DB  29DD               	goto	u2811
  5493     01DC  29DE               	goto	u2810
  5494     01DD                     u2811:
  5495     01DD  29F1               	goto	l2866
  5496     01DE                     u2810:
  5497     01DE                     l2862:
  5498     01DE  0A2D               	incf	ADC2Display@dis^(0+128),w
  5499     01DF  0086               	movwf	6
  5500     01E0  0187               	clrf	7
  5501     01E1  300A               	movlw	10
  5502     01E2  0201               	subwf	1,w
  5503     01E3  1803               	skipnc
  5504     01E4  29E6               	goto	u2821
  5505     01E5  29E7               	goto	u2820
  5506     01E6                     u2821:
  5507     01E6  29F1               	goto	l2866
  5508     01E7                     u2820:
  5509     01E7                     l2864:
  5510     01E7  082D               	movf	ADC2Display@dis^(0+128),w
  5511     01E8  3E02               	addlw	2
  5512     01E9  0086               	movwf	6
  5513     01EA  0187               	clrf	7
  5514     01EB  300A               	movlw	10
  5515     01EC  0201               	subwf	1,w
  5516     01ED  1C03               	skipc
  5517     01EE  29F0               	goto	u2831
  5518     01EF  29F1               	goto	u2830
  5519     01F0                     u2831:
  5520     01F0  2A01               	goto	l341
  5521     01F1                     u2830:
  5522     01F1                     l2866:
  5523                           
  5524                           ;nuestrodisplay.c: 38:         dis->Digito1=9;
  5525     01F1  082D               	movf	ADC2Display@dis^(0+128),w
  5526     01F2  0086               	movwf	6
  5527     01F3  0187               	clrf	7
  5528     01F4  3009               	movlw	9
  5529     01F5  0081               	movwf	1
  5530                           
  5531                           ;nuestrodisplay.c: 39:         dis->Digito2=9;
  5532     01F6  0A2D               	incf	ADC2Display@dis^(0+128),w
  5533     01F7  0086               	movwf	6
  5534     01F8  0187               	clrf	7
  5535     01F9  3009               	movlw	9
  5536     01FA  0081               	movwf	1
  5537     01FB                     l2868:
  5538                           
  5539                           ;nuestrodisplay.c: 40:         dis->Digito3=9;
  5540     01FB  082D               	movf	ADC2Display@dis^(0+128),w
  5541     01FC  3E02               	addlw	2
  5542     01FD  0086               	movwf	6
  5543     01FE  0187               	clrf	7
  5544     01FF  3009               	movlw	9
  5545     0200  0081               	movwf	1
  5546     0201                     l341:
  5547     0201  0008               	return
  5548     0202                     __end_of_ADC2Display:
  5549                           
  5550                           	psect	text30
  5551     0F56                     __ptext30:	
  5552 ;; *************** function ___xxtofl *****************
  5553 ;; Defined at:
  5554 ;;		line 10 in file "C:\Program Files\Microchip\xc8\v2.40\pic\sources\c99\common\xxtofl.c"
  5555 ;; Parameters:    Size  Location     Type
  5556 ;;  sign            1    wreg     unsigned char 
  5557 ;;  val             4    0[COMMON] long 
  5558 ;; Auto vars:     Size  Location     Type
  5559 ;;  sign            1    8[COMMON] unsigned char 
  5560 ;;  arg             4   10[COMMON] unsigned long 
  5561 ;;  exp             1    9[COMMON] unsigned char 
  5562 ;; Return value:  Size  Location     Type
  5563 ;;                  4    0[COMMON] unsigned char 
  5564 ;; Registers used:
  5565 ;;		wreg, status,2, status,0
  5566 ;; Tracked objects:
  5567 ;;		On entry : 0/0
  5568 ;;		On exit  : 0/0
  5569 ;;		Unchanged: 0/0
  5570 ;; Data sizes:     COMMON   BANK0   BANK1   BANK2   BANK3   BANK4
  5571 ;;      Params:         4       0       0       0       0       0
  5572 ;;      Locals:         6       0       0       0       0       0
  5573 ;;      Temps:          4       0       0       0       0       0
  5574 ;;      Totals:        14       0       0       0       0       0
  5575 ;;Total ram usage:       14 bytes
  5576 ;; Hardware stack levels used: 1
  5577 ;; This function calls:
  5578 ;;		Nothing
  5579 ;; This function is called by:
  5580 ;;		_ADC2Display
  5581 ;; This function uses a non-reentrant model
  5582 ;;
  5583                           
  5584     0F56                     ___xxtofl:	
  5585                           ;psect for function ___xxtofl
  5586                           
  5587                           
  5588                           ;incstack = 0
  5589                           ; Regs used in ___xxtofl: [wreg+status,2+status,0]
  5590                           ;___xxtofl@sign stored from wreg
  5591     0F56  00F8               	movwf	___xxtofl@sign
  5592     0F57                     l2690:
  5593     0F57  0878               	movf	___xxtofl@sign,w
  5594     0F58  1903               	btfsc	3,2
  5595     0F59  2F5B               	goto	u2601
  5596     0F5A  2F5C               	goto	u2600
  5597     0F5B                     u2601:
  5598     0F5B  2F70               	goto	l2696
  5599     0F5C                     u2600:
  5600     0F5C                     l2692:
  5601     0F5C  1FF3               	btfss	___xxtofl@val+3,7
  5602     0F5D  2F5F               	goto	u2611
  5603     0F5E  2F60               	goto	u2610
  5604     0F5F                     u2611:
  5605     0F5F  2F70               	goto	l2696
  5606     0F60                     u2610:
  5607     0F60                     l2694:
  5608     0F60  0970               	comf	___xxtofl@val,w
  5609     0F61  00FA               	movwf	___xxtofl@arg
  5610     0F62  0971               	comf	___xxtofl@val+1,w
  5611     0F63  00FB               	movwf	___xxtofl@arg+1
  5612     0F64  0972               	comf	___xxtofl@val+2,w
  5613     0F65  00FC               	movwf	___xxtofl@arg+2
  5614     0F66  0973               	comf	___xxtofl@val+3,w
  5615     0F67  00FD               	movwf	___xxtofl@arg+3
  5616     0F68  0AFA               	incf	___xxtofl@arg,f
  5617     0F69  1903               	skipnz
  5618     0F6A  0AFB               	incf	___xxtofl@arg+1,f
  5619     0F6B  1903               	skipnz
  5620     0F6C  0AFC               	incf	___xxtofl@arg+2,f
  5621     0F6D  1903               	skipnz
  5622     0F6E  0AFD               	incf	___xxtofl@arg+3,f
  5623     0F6F  2F78               	goto	l1131
  5624     0F70                     l2696:
  5625     0F70  0873               	movf	___xxtofl@val+3,w
  5626     0F71  00FD               	movwf	___xxtofl@arg+3
  5627     0F72  0872               	movf	___xxtofl@val+2,w
  5628     0F73  00FC               	movwf	___xxtofl@arg+2
  5629     0F74  0871               	movf	___xxtofl@val+1,w
  5630     0F75  00FB               	movwf	___xxtofl@arg+1
  5631     0F76  0870               	movf	___xxtofl@val,w
  5632     0F77  00FA               	movwf	___xxtofl@arg
  5633     0F78                     l1131:
  5634     0F78  0873               	movf	___xxtofl@val+3,w
  5635     0F79  0472               	iorwf	___xxtofl@val+2,w
  5636     0F7A  0471               	iorwf	___xxtofl@val+1,w
  5637     0F7B  0470               	iorwf	___xxtofl@val,w
  5638     0F7C  1D03               	skipz
  5639     0F7D  2F7F               	goto	u2621
  5640     0F7E  2F80               	goto	u2620
  5641     0F7F                     u2621:
  5642     0F7F  2F89               	goto	l2702
  5643     0F80                     u2620:
  5644     0F80                     l2698:
  5645     0F80  3000               	movlw	0
  5646     0F81  00F3               	movwf	?___xxtofl+3
  5647     0F82  3000               	movlw	0
  5648     0F83  00F2               	movwf	?___xxtofl+2
  5649     0F84  3000               	movlw	0
  5650     0F85  00F1               	movwf	?___xxtofl+1
  5651     0F86  3000               	movlw	0
  5652     0F87  00F0               	movwf	?___xxtofl
  5653     0F88  2FFF               	goto	l1133
  5654     0F89                     l2702:
  5655     0F89  3096               	movlw	150
  5656     0F8A  00F9               	movwf	___xxtofl@exp
  5657     0F8B  2F97               	goto	l2706
  5658     0F8C                     l2704:
  5659     0F8C  3001               	movlw	1
  5660     0F8D  00F4               	movwf	??___xxtofl
  5661     0F8E  0874               	movf	??___xxtofl,w
  5662     0F8F  07F9               	addwf	___xxtofl@exp,f
  5663     0F90  3001               	movlw	1
  5664     0F91                     u2635:
  5665     0F91  36FD               	lsrf	___xxtofl@arg+3,f
  5666     0F92  0CFC               	rrf	___xxtofl@arg+2,f
  5667     0F93  0CFB               	rrf	___xxtofl@arg+1,f
  5668     0F94  0CFA               	rrf	___xxtofl@arg,f
  5669     0F95  0B89               	decfsz	9,f
  5670     0F96  2F91               	goto	u2635
  5671     0F97                     l2706:
  5672     0F97  30FE               	movlw	254
  5673     0F98  057D               	andwf	___xxtofl@arg+3,w
  5674     0F99  1D03               	btfss	3,2
  5675     0F9A  2F9C               	goto	u2641
  5676     0F9B  2F9D               	goto	u2640
  5677     0F9C                     u2641:
  5678     0F9C  2F8C               	goto	l2704
  5679     0F9D                     u2640:
  5680     0F9D  2FB1               	goto	l1137
  5681     0F9E                     l2708:
  5682     0F9E  3001               	movlw	1
  5683     0F9F  00F4               	movwf	??___xxtofl
  5684     0FA0  0874               	movf	??___xxtofl,w
  5685     0FA1  07F9               	addwf	___xxtofl@exp,f
  5686     0FA2                     l2710:
  5687     0FA2  3001               	movlw	1
  5688     0FA3  07FA               	addwf	___xxtofl@arg,f
  5689     0FA4  3000               	movlw	0
  5690     0FA5  3DFB               	addwfc	___xxtofl@arg+1,f
  5691     0FA6  3000               	movlw	0
  5692     0FA7  3DFC               	addwfc	___xxtofl@arg+2,f
  5693     0FA8  3000               	movlw	0
  5694     0FA9  3DFD               	addwfc	___xxtofl@arg+3,f
  5695     0FAA                     l2712:
  5696     0FAA  3001               	movlw	1
  5697     0FAB                     u2655:
  5698     0FAB  36FD               	lsrf	___xxtofl@arg+3,f
  5699     0FAC  0CFC               	rrf	___xxtofl@arg+2,f
  5700     0FAD  0CFB               	rrf	___xxtofl@arg+1,f
  5701     0FAE  0CFA               	rrf	___xxtofl@arg,f
  5702     0FAF  0B89               	decfsz	9,f
  5703     0FB0  2FAB               	goto	u2655
  5704     0FB1                     l1137:
  5705     0FB1  30FF               	movlw	255
  5706     0FB2  057D               	andwf	___xxtofl@arg+3,w
  5707     0FB3  1D03               	btfss	3,2
  5708     0FB4  2FB6               	goto	u2661
  5709     0FB5  2FB7               	goto	u2660
  5710     0FB6                     u2661:
  5711     0FB6  2F9E               	goto	l2708
  5712     0FB7                     u2660:
  5713     0FB7  2FC1               	goto	l2716
  5714     0FB8                     l2714:
  5715     0FB8  3001               	movlw	1
  5716     0FB9  02F9               	subwf	___xxtofl@exp,f
  5717     0FBA  3001               	movlw	1
  5718     0FBB                     u2675:
  5719     0FBB  35FA               	lslf	___xxtofl@arg,f
  5720     0FBC  0DFB               	rlf	___xxtofl@arg+1,f
  5721     0FBD  0DFC               	rlf	___xxtofl@arg+2,f
  5722     0FBE  0DFD               	rlf	___xxtofl@arg+3,f
  5723     0FBF  0B89               	decfsz	9,f
  5724     0FC0  2FBB               	goto	u2675
  5725     0FC1                     l2716:
  5726     0FC1  1BFC               	btfsc	___xxtofl@arg+2,7
  5727     0FC2  2FC4               	goto	u2681
  5728     0FC3  2FC5               	goto	u2680
  5729     0FC4                     u2681:
  5730     0FC4  2FCB               	goto	l1144
  5731     0FC5                     u2680:
  5732     0FC5                     l2718:
  5733     0FC5  3002               	movlw	2
  5734     0FC6  0279               	subwf	___xxtofl@exp,w
  5735     0FC7  1803               	skipnc
  5736     0FC8  2FCA               	goto	u2691
  5737     0FC9  2FCB               	goto	u2690
  5738     0FCA                     u2691:
  5739     0FCA  2FB8               	goto	l2714
  5740     0FCB                     u2690:
  5741     0FCB                     l1144:
  5742     0FCB  1879               	btfsc	___xxtofl@exp,0
  5743     0FCC  2FCE               	goto	u2701
  5744     0FCD  2FCF               	goto	u2700
  5745     0FCE                     u2701:
  5746     0FCE  2FD7               	goto	l1145
  5747     0FCF                     u2700:
  5748     0FCF                     l2720:
  5749     0FCF  30FF               	movlw	255
  5750     0FD0  05FA               	andwf	___xxtofl@arg,f
  5751     0FD1  30FF               	movlw	255
  5752     0FD2  05FB               	andwf	___xxtofl@arg+1,f
  5753     0FD3  307F               	movlw	127
  5754     0FD4  05FC               	andwf	___xxtofl@arg+2,f
  5755     0FD5  30FF               	movlw	255
  5756     0FD6  05FD               	andwf	___xxtofl@arg+3,f
  5757     0FD7                     l1145:
  5758     0FD7  1003               	clrc
  5759     0FD8  0CF9               	rrf	___xxtofl@exp,f
  5760     0FD9                     l2722:
  5761     0FD9  0879               	movf	___xxtofl@exp,w
  5762     0FDA  00F4               	movwf	??___xxtofl
  5763     0FDB  01F5               	clrf	??___xxtofl+1
  5764     0FDC  01F6               	clrf	??___xxtofl+2
  5765     0FDD  01F7               	clrf	??___xxtofl+3
  5766     0FDE  3018               	movlw	24
  5767     0FDF                     u2715:
  5768     0FDF  35F4               	lslf	??___xxtofl,f
  5769     0FE0  0DF5               	rlf	??___xxtofl+1,f
  5770     0FE1  0DF6               	rlf	??___xxtofl+2,f
  5771     0FE2  0DF7               	rlf	??___xxtofl+3,f
  5772     0FE3                     u2710:
  5773     0FE3  0B89               	decfsz	9,f
  5774     0FE4  2FDF               	goto	u2715
  5775     0FE5  0874               	movf	??___xxtofl,w
  5776     0FE6  04FA               	iorwf	___xxtofl@arg,f
  5777     0FE7  0875               	movf	??___xxtofl+1,w
  5778     0FE8  04FB               	iorwf	___xxtofl@arg+1,f
  5779     0FE9  0876               	movf	??___xxtofl+2,w
  5780     0FEA  04FC               	iorwf	___xxtofl@arg+2,f
  5781     0FEB  0877               	movf	??___xxtofl+3,w
  5782     0FEC  04FD               	iorwf	___xxtofl@arg+3,f
  5783     0FED                     l2724:
  5784     0FED  0878               	movf	___xxtofl@sign,w
  5785     0FEE  1903               	btfsc	3,2
  5786     0FEF  2FF1               	goto	u2721
  5787     0FF0  2FF2               	goto	u2720
  5788     0FF1                     u2721:
  5789     0FF1  2FF7               	goto	l2730
  5790     0FF2                     u2720:
  5791     0FF2                     l2726:
  5792     0FF2  1FF3               	btfss	___xxtofl@val+3,7
  5793     0FF3  2FF5               	goto	u2731
  5794     0FF4  2FF6               	goto	u2730
  5795     0FF5                     u2731:
  5796     0FF5  2FF7               	goto	l2730
  5797     0FF6                     u2730:
  5798     0FF6                     l2728:
  5799     0FF6  17FD               	bsf	___xxtofl@arg+3,7
  5800     0FF7                     l2730:
  5801     0FF7  087D               	movf	___xxtofl@arg+3,w
  5802     0FF8  00F3               	movwf	?___xxtofl+3
  5803     0FF9  087C               	movf	___xxtofl@arg+2,w
  5804     0FFA  00F2               	movwf	?___xxtofl+2
  5805     0FFB  087B               	movf	___xxtofl@arg+1,w
  5806     0FFC  00F1               	movwf	?___xxtofl+1
  5807     0FFD  087A               	movf	___xxtofl@arg,w
  5808     0FFE  00F0               	movwf	?___xxtofl
  5809     0FFF                     l1133:
  5810     0FFF  0008               	return
  5811     1000                     __end_of___xxtofl:
  5812                           
  5813                           	psect	text31
  5814     0D67                     __ptext31:	
  5815 ;; *************** function ___fltol *****************
  5816 ;; Defined at:
  5817 ;;		line 43 in file "C:\Program Files\Microchip\xc8\v2.40\pic\sources\c99\common\fltol.c"
  5818 ;; Parameters:    Size  Location     Type
  5819 ;;  f1              4   68[BANK0 ] unsigned char 
  5820 ;; Auto vars:     Size  Location     Type
  5821 ;;  exp1            1   77[BANK0 ] unsigned char 
  5822 ;;  sign1           1   76[BANK0 ] unsigned char 
  5823 ;; Return value:  Size  Location     Type
  5824 ;;                  4   68[BANK0 ] long 
  5825 ;; Registers used:
  5826 ;;		wreg, status,2, status,0
  5827 ;; Tracked objects:
  5828 ;;		On entry : 0/0
  5829 ;;		On exit  : 0/0
  5830 ;;		Unchanged: 0/0
  5831 ;; Data sizes:     COMMON   BANK0   BANK1   BANK2   BANK3   BANK4
  5832 ;;      Params:         0       4       0       0       0       0
  5833 ;;      Locals:         0       2       0       0       0       0
  5834 ;;      Temps:          0       4       0       0       0       0
  5835 ;;      Totals:         0      10       0       0       0       0
  5836 ;;Total ram usage:       10 bytes
  5837 ;; Hardware stack levels used: 1
  5838 ;; This function calls:
  5839 ;;		Nothing
  5840 ;; This function is called by:
  5841 ;;		_ADC2Display
  5842 ;; This function uses a non-reentrant model
  5843 ;;
  5844                           
  5845     0D67                     ___fltol:	
  5846                           ;psect for function ___fltol
  5847                           
  5848     0D67                     l2368:	
  5849                           ;incstack = 0
  5850                           ; Regs used in ___fltol: [wreg+status,2+status,0]
  5851                           
  5852     0D67  1003               	clrc
  5853     0D68  0020               	movlb	0	; select bank0
  5854     0D69  0D66               	rlf	___fltol@f1+2,w
  5855     0D6A  0D67               	rlf	___fltol@f1+3,w
  5856     0D6B  00ED               	movwf	___fltol@exp1
  5857     0D6C  086D               	movf	___fltol@exp1,w
  5858     0D6D  1D03               	btfss	3,2
  5859     0D6E  2D70               	goto	u1951
  5860     0D6F  2D71               	goto	u1950
  5861     0D70                     u1951:
  5862     0D70  2D7A               	goto	l2374
  5863     0D71                     u1950:
  5864     0D71                     l2370:
  5865     0D71  3000               	movlw	0
  5866     0D72  00E7               	movwf	?___fltol+3
  5867     0D73  3000               	movlw	0
  5868     0D74  00E6               	movwf	?___fltol+2
  5869     0D75  3000               	movlw	0
  5870     0D76  00E5               	movwf	?___fltol+1
  5871     0D77  3000               	movlw	0
  5872     0D78  00E4               	movwf	?___fltol
  5873     0D79  2DD7               	goto	l884
  5874     0D7A                     l2374:
  5875     0D7A  0864               	movf	___fltol@f1,w
  5876     0D7B  00E8               	movwf	??___fltol
  5877     0D7C  0865               	movf	___fltol@f1+1,w
  5878     0D7D  00E9               	movwf	??___fltol+1
  5879     0D7E  0866               	movf	___fltol@f1+2,w
  5880     0D7F  00EA               	movwf	??___fltol+2
  5881     0D80  0867               	movf	___fltol@f1+3,w
  5882     0D81  00EB               	movwf	??___fltol+3
  5883     0D82  301F               	movlw	31
  5884     0D83                     u1965:
  5885     0D83  36EB               	lsrf	??___fltol+3,f
  5886     0D84  0CEA               	rrf	??___fltol+2,f
  5887     0D85  0CE9               	rrf	??___fltol+1,f
  5888     0D86  0CE8               	rrf	??___fltol,f
  5889     0D87                     u1960:
  5890     0D87  0B89               	decfsz	9,f
  5891     0D88  2D83               	goto	u1965
  5892     0D89  0868               	movf	??___fltol,w
  5893     0D8A  00EC               	movwf	___fltol@sign1
  5894     0D8B                     l2376:
  5895     0D8B  17E6               	bsf	___fltol@f1+2,7
  5896     0D8C                     l2378:
  5897     0D8C  30FF               	movlw	255
  5898     0D8D  05E4               	andwf	___fltol@f1,f
  5899     0D8E  30FF               	movlw	255
  5900     0D8F  05E5               	andwf	___fltol@f1+1,f
  5901     0D90  30FF               	movlw	255
  5902     0D91  05E6               	andwf	___fltol@f1+2,f
  5903     0D92  3000               	movlw	0
  5904     0D93  05E7               	andwf	___fltol@f1+3,f
  5905     0D94                     l2380:
  5906     0D94  3096               	movlw	150
  5907     0D95  02ED               	subwf	___fltol@exp1,f
  5908     0D96                     l2382:
  5909     0D96  1FED               	btfss	___fltol@exp1,7
  5910     0D97  2D99               	goto	u1971
  5911     0D98  2D9A               	goto	u1970
  5912     0D99                     u1971:
  5913     0D99  2DB2               	goto	l2392
  5914     0D9A                     u1970:
  5915     0D9A                     l2384:
  5916     0D9A  086D               	movf	___fltol@exp1,w
  5917     0D9B  3A80               	xorlw	128
  5918     0D9C  3E97               	addlw	151
  5919     0D9D  1803               	skipnc
  5920     0D9E  2DA0               	goto	u1981
  5921     0D9F  2DA1               	goto	u1980
  5922     0DA0                     u1981:
  5923     0DA0  2DA2               	goto	l2390
  5924     0DA1                     u1980:
  5925     0DA1  2D71               	goto	l2370
  5926     0DA2                     l2390:
  5927     0DA2  3001               	movlw	1
  5928     0DA3                     u1995:
  5929     0DA3  36E7               	lsrf	___fltol@f1+3,f
  5930     0DA4  0CE6               	rrf	___fltol@f1+2,f
  5931     0DA5  0CE5               	rrf	___fltol@f1+1,f
  5932     0DA6  0CE4               	rrf	___fltol@f1,f
  5933     0DA7  0B89               	decfsz	9,f
  5934     0DA8  2DA3               	goto	u1995
  5935     0DA9  3001               	movlw	1
  5936     0DAA  00E8               	movwf	??___fltol
  5937     0DAB  0868               	movf	??___fltol,w
  5938     0DAC  07ED               	addwf	___fltol@exp1,f
  5939     0DAD  1D03               	btfss	3,2
  5940     0DAE  2DB0               	goto	u2001
  5941     0DAF  2DB1               	goto	u2000
  5942     0DB0                     u2001:
  5943     0DB0  2DA2               	goto	l2390
  5944     0DB1                     u2000:
  5945     0DB1  2DC7               	goto	l2400
  5946     0DB2                     l2392:
  5947     0DB2  3020               	movlw	32
  5948     0DB3  026D               	subwf	___fltol@exp1,w
  5949     0DB4  1C03               	skipc
  5950     0DB5  2DB7               	goto	u2011
  5951     0DB6  2DB8               	goto	u2010
  5952     0DB7                     u2011:
  5953     0DB7  2DC2               	goto	l891
  5954     0DB8                     u2010:
  5955     0DB8  2D71               	goto	l2370
  5956     0DB9                     l2398:
  5957     0DB9  3001               	movlw	1
  5958     0DBA                     u2025:
  5959     0DBA  35E4               	lslf	___fltol@f1,f
  5960     0DBB  0DE5               	rlf	___fltol@f1+1,f
  5961     0DBC  0DE6               	rlf	___fltol@f1+2,f
  5962     0DBD  0DE7               	rlf	___fltol@f1+3,f
  5963     0DBE  0B89               	decfsz	9,f
  5964     0DBF  2DBA               	goto	u2025
  5965     0DC0  3001               	movlw	1
  5966     0DC1  02ED               	subwf	___fltol@exp1,f
  5967     0DC2                     l891:
  5968     0DC2  086D               	movf	___fltol@exp1,w
  5969     0DC3  1D03               	btfss	3,2
  5970     0DC4  2DC6               	goto	u2031
  5971     0DC5  2DC7               	goto	u2030
  5972     0DC6                     u2031:
  5973     0DC6  2DB9               	goto	l2398
  5974     0DC7                     u2030:
  5975     0DC7                     l2400:
  5976     0DC7  086C               	movf	___fltol@sign1,w
  5977     0DC8  1903               	btfsc	3,2
  5978     0DC9  2DCB               	goto	u2041
  5979     0DCA  2DCC               	goto	u2040
  5980     0DCB                     u2041:
  5981     0DCB  2DD7               	goto	l894
  5982     0DCC                     u2040:
  5983     0DCC                     l2402:
  5984     0DCC  09E4               	comf	___fltol@f1,f
  5985     0DCD  09E5               	comf	___fltol@f1+1,f
  5986     0DCE  09E6               	comf	___fltol@f1+2,f
  5987     0DCF  09E7               	comf	___fltol@f1+3,f
  5988     0DD0  0AE4               	incf	___fltol@f1,f
  5989     0DD1  1903               	skipnz
  5990     0DD2  0AE5               	incf	___fltol@f1+1,f
  5991     0DD3  1903               	skipnz
  5992     0DD4  0AE6               	incf	___fltol@f1+2,f
  5993     0DD5  1903               	skipnz
  5994     0DD6  0AE7               	incf	___fltol@f1+3,f
  5995     0DD7                     l894:
  5996     0DD7                     l884:
  5997     0DD7  0008               	return
  5998     0DD8                     __end_of___fltol:
  5999                           
  6000                           	psect	text32
  6001     0C94                     __ptext32:	
  6002 ;; *************** function ___flsub *****************
  6003 ;; Defined at:
  6004 ;;		line 242 in file "C:\Program Files\Microchip\xc8\v2.40\pic\sources\c99\common\sprcadd.c"
  6005 ;; Parameters:    Size  Location     Type
  6006 ;;  a               4    8[BANK0 ] long 
  6007 ;;  b               4   12[BANK0 ] long 
  6008 ;; Auto vars:     Size  Location     Type
  6009 ;;		None
  6010 ;; Return value:  Size  Location     Type
  6011 ;;                  4    8[BANK0 ] long 
  6012 ;; Registers used:
  6013 ;;		wreg, status,2, status,0, pclath, cstack
  6014 ;; Tracked objects:
  6015 ;;		On entry : 0/0
  6016 ;;		On exit  : 0/0
  6017 ;;		Unchanged: 0/0
  6018 ;; Data sizes:     COMMON   BANK0   BANK1   BANK2   BANK3   BANK4
  6019 ;;      Params:         0       8       0       0       0       0
  6020 ;;      Locals:         0       0       0       0       0       0
  6021 ;;      Temps:          0       0       0       0       0       0
  6022 ;;      Totals:         0       8       0       0       0       0
  6023 ;;Total ram usage:        8 bytes
  6024 ;; Hardware stack levels used: 1
  6025 ;; Hardware stack levels required when called: 1
  6026 ;; This function calls:
  6027 ;;		___fladd
  6028 ;; This function is called by:
  6029 ;;		_ADC2Display
  6030 ;; This function uses a non-reentrant model
  6031 ;;
  6032                           
  6033     0C94                     ___flsub:	
  6034                           ;psect for function ___flsub
  6035                           
  6036     0C94                     l2404:	
  6037                           ;incstack = 0
  6038                           ; Regs used in ___flsub: [wreg+status,2+status,0+pclath+cstack]
  6039                           
  6040     0C94  3080               	movlw	128
  6041     0C95  0020               	movlb	0	; select bank0
  6042     0C96  06AB               	xorwf	___flsub@a+3,f
  6043     0C97                     l2406:
  6044     0C97  082F               	movf	___flsub@b+3,w
  6045     0C98  00F3               	movwf	___fladd@b+3
  6046     0C99  082E               	movf	___flsub@b+2,w
  6047     0C9A  00F2               	movwf	___fladd@b+2
  6048     0C9B  082D               	movf	___flsub@b+1,w
  6049     0C9C  00F1               	movwf	___fladd@b+1
  6050     0C9D  082C               	movf	___flsub@b,w
  6051     0C9E  00F0               	movwf	___fladd@b
  6052     0C9F  082B               	movf	___flsub@a+3,w
  6053     0CA0  00F7               	movwf	___fladd@a+3
  6054     0CA1  082A               	movf	___flsub@a+2,w
  6055     0CA2  00F6               	movwf	___fladd@a+2
  6056     0CA3  0829               	movf	___flsub@a+1,w
  6057     0CA4  00F5               	movwf	___fladd@a+1
  6058     0CA5  0828               	movf	___flsub@a,w
  6059     0CA6  00F4               	movwf	___fladd@a
  6060     0CA7  3183  23AC  318C   	fcall	___fladd
  6061     0CAA  0873               	movf	?___fladd+3,w
  6062     0CAB  0020               	movlb	0	; select bank0
  6063     0CAC  00AB               	movwf	?___flsub+3
  6064     0CAD  0872               	movf	?___fladd+2,w
  6065     0CAE  00AA               	movwf	?___flsub+2
  6066     0CAF  0871               	movf	?___fladd+1,w
  6067     0CB0  00A9               	movwf	?___flsub+1
  6068     0CB1  0870               	movf	?___fladd,w
  6069     0CB2  00A8               	movwf	?___flsub
  6070     0CB3                     l1037:
  6071     0CB3  0008               	return
  6072     0CB4                     __end_of___flsub:
  6073                           
  6074                           	psect	text33
  6075     03AC                     __ptext33:	
  6076 ;; *************** function ___fladd *****************
  6077 ;; Defined at:
  6078 ;;		line 10 in file "C:\Program Files\Microchip\xc8\v2.40\pic\sources\c99\common\sprcadd.c"
  6079 ;; Parameters:    Size  Location     Type
  6080 ;;  b               4    0[COMMON] long 
  6081 ;;  a               4    4[COMMON] long 
  6082 ;; Auto vars:     Size  Location     Type
  6083 ;;  grs             1   11[COMMON] unsigned char 
  6084 ;;  bexp            1   10[COMMON] unsigned char 
  6085 ;;  aexp            1    9[COMMON] unsigned char 
  6086 ;;  signs           1    8[COMMON] unsigned char 
  6087 ;; Return value:  Size  Location     Type
  6088 ;;                  4    0[COMMON] unsigned char 
  6089 ;; Registers used:
  6090 ;;		wreg, status,2, status,0
  6091 ;; Tracked objects:
  6092 ;;		On entry : 0/0
  6093 ;;		On exit  : 0/0
  6094 ;;		Unchanged: 0/0
  6095 ;; Data sizes:     COMMON   BANK0   BANK1   BANK2   BANK3   BANK4
  6096 ;;      Params:         8       0       0       0       0       0
  6097 ;;      Locals:         4       0       0       0       0       0
  6098 ;;      Temps:          0       8       0       0       0       0
  6099 ;;      Totals:        12       8       0       0       0       0
  6100 ;;Total ram usage:       20 bytes
  6101 ;; Hardware stack levels used: 1
  6102 ;; This function calls:
  6103 ;;		Nothing
  6104 ;; This function is called by:
  6105 ;;		___flsub
  6106 ;; This function uses a non-reentrant model
  6107 ;;
  6108                           
  6109     03AC                     ___fladd:	
  6110                           ;psect for function ___fladd
  6111                           
  6112     03AC                     l2098:	
  6113                           ;incstack = 0
  6114                           ; Regs used in ___fladd: [wreg+status,2+status,0]
  6115                           
  6116     03AC  0873               	movf	___fladd@b+3,w
  6117     03AD  3980               	andlw	128
  6118     03AE  00F8               	movwf	___fladd@signs
  6119     03AF                     l2100:
  6120     03AF  3573               	lslf	___fladd@b+3,w
  6121     03B0  00FA               	movwf	___fladd@bexp
  6122     03B1                     l2102:
  6123     03B1  1FF2               	btfss	___fladd@b+2,7
  6124     03B2  2BB4               	goto	u1481
  6125     03B3  2BB5               	goto	u1480
  6126     03B4                     u1481:
  6127     03B4  2BB6               	goto	l2106
  6128     03B5                     u1480:
  6129     03B5                     l2104:
  6130     03B5  147A               	bsf	___fladd@bexp,0
  6131     03B6                     l2106:
  6132     03B6  087A               	movf	___fladd@bexp,w
  6133     03B7  1903               	btfsc	3,2
  6134     03B8  2BBA               	goto	u1491
  6135     03B9  2BBB               	goto	u1490
  6136     03BA                     u1491:
  6137     03BA  2BCB               	goto	l2116
  6138     03BB                     u1490:
  6139     03BB                     l2108:
  6140     03BB  0A7A               	incf	___fladd@bexp,w
  6141     03BC  1D03               	btfss	3,2
  6142     03BD  2BBF               	goto	u1501
  6143     03BE  2BC0               	goto	u1500
  6144     03BF                     u1501:
  6145     03BF  2BC8               	goto	l2112
  6146     03C0                     u1500:
  6147     03C0                     l2110:
  6148     03C0  3000               	movlw	0
  6149     03C1  00F3               	movwf	___fladd@b+3
  6150     03C2  3000               	movlw	0
  6151     03C3  00F2               	movwf	___fladd@b+2
  6152     03C4  3000               	movlw	0
  6153     03C5  00F1               	movwf	___fladd@b+1
  6154     03C6  3000               	movlw	0
  6155     03C7  00F0               	movwf	___fladd@b
  6156     03C8                     l2112:
  6157     03C8  17F2               	bsf	___fladd@b+2,7
  6158     03C9                     l2114:
  6159     03C9  01F3               	clrf	___fladd@b+3
  6160     03CA  2BD3               	goto	l2118
  6161     03CB                     l2116:
  6162     03CB  3000               	movlw	0
  6163     03CC  00F3               	movwf	___fladd@b+3
  6164     03CD  3000               	movlw	0
  6165     03CE  00F2               	movwf	___fladd@b+2
  6166     03CF  3000               	movlw	0
  6167     03D0  00F1               	movwf	___fladd@b+1
  6168     03D1  3000               	movlw	0
  6169     03D2  00F0               	movwf	___fladd@b
  6170     03D3                     l2118:
  6171     03D3  0877               	movf	___fladd@a+3,w
  6172     03D4  3980               	andlw	128
  6173     03D5  00F9               	movwf	___fladd@aexp
  6174     03D6                     l2120:
  6175     03D6  0879               	movf	___fladd@aexp,w
  6176     03D7  0678               	xorwf	___fladd@signs,w
  6177     03D8  1903               	skipnz
  6178     03D9  2BDB               	goto	u1511
  6179     03DA  2BDC               	goto	u1510
  6180     03DB                     u1511:
  6181     03DB  2BDD               	goto	l2124
  6182     03DC                     u1510:
  6183     03DC                     l2122:
  6184     03DC  1778               	bsf	___fladd@signs,6
  6185     03DD                     l2124:
  6186     03DD  3577               	lslf	___fladd@a+3,w
  6187     03DE  00F9               	movwf	___fladd@aexp
  6188     03DF                     l2126:
  6189     03DF  1FF6               	btfss	___fladd@a+2,7
  6190     03E0  2BE2               	goto	u1521
  6191     03E1  2BE3               	goto	u1520
  6192     03E2                     u1521:
  6193     03E2  2BE4               	goto	l2130
  6194     03E3                     u1520:
  6195     03E3                     l2128:
  6196     03E3  1479               	bsf	___fladd@aexp,0
  6197     03E4                     l2130:
  6198     03E4  0879               	movf	___fladd@aexp,w
  6199     03E5  1903               	btfsc	3,2
  6200     03E6  2BE8               	goto	u1531
  6201     03E7  2BE9               	goto	u1530
  6202     03E8                     u1531:
  6203     03E8  2BF9               	goto	l2140
  6204     03E9                     u1530:
  6205     03E9                     l2132:
  6206     03E9  0A79               	incf	___fladd@aexp,w
  6207     03EA  1D03               	btfss	3,2
  6208     03EB  2BED               	goto	u1541
  6209     03EC  2BEE               	goto	u1540
  6210     03ED                     u1541:
  6211     03ED  2BF6               	goto	l2136
  6212     03EE                     u1540:
  6213     03EE                     l2134:
  6214     03EE  3000               	movlw	0
  6215     03EF  00F7               	movwf	___fladd@a+3
  6216     03F0  3000               	movlw	0
  6217     03F1  00F6               	movwf	___fladd@a+2
  6218     03F2  3000               	movlw	0
  6219     03F3  00F5               	movwf	___fladd@a+1
  6220     03F4  3000               	movlw	0
  6221     03F5  00F4               	movwf	___fladd@a
  6222     03F6                     l2136:
  6223     03F6  17F6               	bsf	___fladd@a+2,7
  6224     03F7                     l2138:
  6225     03F7  01F7               	clrf	___fladd@a+3
  6226     03F8  2C01               	goto	l991
  6227     03F9                     l2140:
  6228     03F9  3000               	movlw	0
  6229     03FA  00F7               	movwf	___fladd@a+3
  6230     03FB  3000               	movlw	0
  6231     03FC  00F6               	movwf	___fladd@a+2
  6232     03FD  3000               	movlw	0
  6233     03FE  00F5               	movwf	___fladd@a+1
  6234     03FF  3000               	movlw	0
  6235     0400  00F4               	movwf	___fladd@a
  6236     0401                     l991:
  6237     0401  087A               	movf	___fladd@bexp,w
  6238     0402  0279               	subwf	___fladd@aexp,w
  6239     0403  1803               	skipnc
  6240     0404  2C06               	goto	u1551
  6241     0405  2C07               	goto	u1550
  6242     0406                     u1551:
  6243     0406  2C2E               	goto	l2176
  6244     0407                     u1550:
  6245     0407                     l2142:
  6246     0407  1F78               	btfss	___fladd@signs,6
  6247     0408  2C0A               	goto	u1561
  6248     0409  2C0B               	goto	u1560
  6249     040A                     u1561:
  6250     040A  2C10               	goto	l2146
  6251     040B                     u1560:
  6252     040B                     l2144:
  6253     040B  3080               	movlw	128
  6254     040C  0020               	movlb	0	; select bank0
  6255     040D  00A0               	movwf	??___fladd
  6256     040E  0820               	movf	??___fladd,w
  6257     040F  06F8               	xorwf	___fladd@signs,f
  6258     0410                     l2146:
  6259     0410  087A               	movf	___fladd@bexp,w
  6260     0411  00FB               	movwf	___fladd@grs
  6261     0412                     l2148:
  6262     0412  0879               	movf	___fladd@aexp,w
  6263     0413  00FA               	movwf	___fladd@bexp
  6264     0414                     l2150:
  6265     0414  087B               	movf	___fladd@grs,w
  6266     0415  00F9               	movwf	___fladd@aexp
  6267     0416                     l2152:
  6268     0416  0870               	movf	___fladd@b,w
  6269     0417  00FB               	movwf	___fladd@grs
  6270     0418                     l2154:
  6271     0418  0874               	movf	___fladd@a,w
  6272     0419  00F0               	movwf	___fladd@b
  6273     041A                     l2156:
  6274     041A  087B               	movf	___fladd@grs,w
  6275     041B  00F4               	movwf	___fladd@a
  6276     041C                     l2158:
  6277     041C  0871               	movf	___fladd@b+1,w
  6278     041D  00FB               	movwf	___fladd@grs
  6279     041E                     l2160:
  6280     041E  0875               	movf	___fladd@a+1,w
  6281     041F  00F1               	movwf	___fladd@b+1
  6282     0420                     l2162:
  6283     0420  087B               	movf	___fladd@grs,w
  6284     0421  00F5               	movwf	___fladd@a+1
  6285     0422                     l2164:
  6286     0422  0872               	movf	___fladd@b+2,w
  6287     0423  00FB               	movwf	___fladd@grs
  6288     0424                     l2166:
  6289     0424  0876               	movf	___fladd@a+2,w
  6290     0425  00F2               	movwf	___fladd@b+2
  6291     0426                     l2168:
  6292     0426  087B               	movf	___fladd@grs,w
  6293     0427  00F6               	movwf	___fladd@a+2
  6294     0428                     l2170:
  6295     0428  0873               	movf	___fladd@b+3,w
  6296     0429  00FB               	movwf	___fladd@grs
  6297     042A                     l2172:
  6298     042A  0877               	movf	___fladd@a+3,w
  6299     042B  00F3               	movwf	___fladd@b+3
  6300     042C                     l2174:
  6301     042C  087B               	movf	___fladd@grs,w
  6302     042D  00F7               	movwf	___fladd@a+3
  6303     042E                     l2176:
  6304     042E  01FB               	clrf	___fladd@grs
  6305     042F                     l2178:
  6306     042F  0879               	movf	___fladd@aexp,w
  6307     0430  0020               	movlb	0	; select bank0
  6308     0431  00A0               	movwf	??___fladd
  6309     0432  01A1               	clrf	??___fladd+1
  6310     0433  0821               	movf	??___fladd+1,w
  6311     0434  00A3               	movwf	??___fladd+3
  6312     0435  087A               	movf	___fladd@bexp,w
  6313     0436  0220               	subwf	??___fladd,w
  6314     0437  00A2               	movwf	??___fladd+2
  6315     0438  1C03               	skipc
  6316     0439  03A3               	decf	??___fladd+3,f
  6317     043A  0823               	movf	??___fladd+3,w
  6318     043B  3A80               	xorlw	128
  6319     043C  00A4               	movwf	??___fladd+4
  6320     043D  3080               	movlw	128
  6321     043E  0224               	subwf	??___fladd+4,w
  6322     043F  1D03               	skipz
  6323     0440  2C43               	goto	u1575
  6324     0441  301A               	movlw	26
  6325     0442  0222               	subwf	??___fladd+2,w
  6326     0443                     u1575:
  6327     0443  1C03               	skipc
  6328     0444  2C46               	goto	u1571
  6329     0445  2C47               	goto	u1570
  6330     0446                     u1571:
  6331     0446  2C79               	goto	l2194
  6332     0447                     u1570:
  6333     0447                     l2180:
  6334     0447  0873               	movf	___fladd@b+3,w
  6335     0448  0472               	iorwf	___fladd@b+2,w
  6336     0449  0471               	iorwf	___fladd@b+1,w
  6337     044A  0470               	iorwf	___fladd@b,w
  6338     044B  1D03               	skipz
  6339     044C  2C4E               	goto	u1581
  6340     044D  2C50               	goto	u1580
  6341     044E                     u1581:
  6342     044E  3001               	movlw	1
  6343     044F  2C51               	goto	u1590
  6344     0450                     u1580:
  6345     0450  3000               	movlw	0
  6346     0451                     u1590:
  6347     0451  00FB               	movwf	___fladd@grs
  6348     0452  3000               	movlw	0
  6349     0453  00F3               	movwf	___fladd@b+3
  6350     0454  3000               	movlw	0
  6351     0455  00F2               	movwf	___fladd@b+2
  6352     0456  3000               	movlw	0
  6353     0457  00F1               	movwf	___fladd@b+1
  6354     0458  3000               	movlw	0
  6355     0459  00F0               	movwf	___fladd@b
  6356     045A  0879               	movf	___fladd@aexp,w
  6357     045B  00FA               	movwf	___fladd@bexp
  6358     045C  2C7F               	goto	l995
  6359     045D                     l997:
  6360     045D  1C7B               	btfss	___fladd@grs,0
  6361     045E  2C60               	goto	u1601
  6362     045F  2C61               	goto	u1600
  6363     0460                     u1601:
  6364     0460  2C65               	goto	l2184
  6365     0461                     u1600:
  6366     0461                     l2182:
  6367     0461  367B               	lsrf	___fladd@grs,w
  6368     0462  3801               	iorlw	1
  6369     0463  00FB               	movwf	___fladd@grs
  6370     0464  2C67               	goto	l2186
  6371     0465                     l2184:
  6372     0465  1003               	clrc
  6373     0466  0CFB               	rrf	___fladd@grs,f
  6374     0467                     l2186:
  6375     0467  1C70               	btfss	___fladd@b,0
  6376     0468  2C6A               	goto	u1611
  6377     0469  2C6B               	goto	u1610
  6378     046A                     u1611:
  6379     046A  2C6C               	goto	l2190
  6380     046B                     u1610:
  6381     046B                     l2188:
  6382     046B  17FB               	bsf	___fladd@grs,7
  6383     046C                     l2190:
  6384     046C  3001               	movlw	1
  6385     046D  0020               	movlb	0	; select bank0
  6386     046E  00A0               	movwf	??___fladd
  6387     046F                     u1625:
  6388     046F  37F3               	asrf	___fladd@b+3,f
  6389     0470  0CF2               	rrf	___fladd@b+2,f
  6390     0471  0CF1               	rrf	___fladd@b+1,f
  6391     0472  0CF0               	rrf	___fladd@b,f
  6392     0473  0BA0               	decfsz	??___fladd& (0+127),f
  6393     0474  2C6F               	goto	u1625
  6394     0475                     l2192:
  6395     0475  3001               	movlw	1
  6396     0476  00A0               	movwf	??___fladd
  6397     0477  0820               	movf	??___fladd,w
  6398     0478  07FA               	addwf	___fladd@bexp,f
  6399     0479                     l2194:
  6400     0479  0879               	movf	___fladd@aexp,w
  6401     047A  027A               	subwf	___fladd@bexp,w
  6402     047B  1C03               	skipc
  6403     047C  2C7E               	goto	u1631
  6404     047D  2C7F               	goto	u1630
  6405     047E                     u1631:
  6406     047E  2C5D               	goto	l997
  6407     047F                     u1630:
  6408     047F                     l995:
  6409     047F  1B78               	btfsc	___fladd@signs,6
  6410     0480  2C82               	goto	u1641
  6411     0481  2C83               	goto	u1640
  6412     0482                     u1641:
  6413     0482  2CBA               	goto	l2220
  6414     0483                     u1640:
  6415     0483                     l2196:
  6416     0483  087A               	movf	___fladd@bexp,w
  6417     0484  1D03               	btfss	3,2
  6418     0485  2C87               	goto	u1651
  6419     0486  2C88               	goto	u1650
  6420     0487                     u1651:
  6421     0487  2C91               	goto	l2202
  6422     0488                     u1650:
  6423     0488                     l2198:
  6424     0488  3000               	movlw	0
  6425     0489  00F3               	movwf	?___fladd+3
  6426     048A  3000               	movlw	0
  6427     048B  00F2               	movwf	?___fladd+2
  6428     048C  3000               	movlw	0
  6429     048D  00F1               	movwf	?___fladd+1
  6430     048E  3000               	movlw	0
  6431     048F  00F0               	movwf	?___fladd
  6432     0490  2DB7               	goto	l1004
  6433     0491                     l2202:
  6434     0491  0874               	movf	___fladd@a,w
  6435     0492  07F0               	addwf	___fladd@b,f
  6436     0493  0875               	movf	___fladd@a+1,w
  6437     0494  3DF1               	addwfc	___fladd@b+1,f
  6438     0495  0876               	movf	___fladd@a+2,w
  6439     0496  3DF2               	addwfc	___fladd@b+2,f
  6440     0497  0877               	movf	___fladd@a+3,w
  6441     0498  3DF3               	addwfc	___fladd@b+3,f
  6442     0499                     l2204:
  6443     0499  1C73               	btfss	___fladd@b+3,0
  6444     049A  2C9C               	goto	u1661
  6445     049B  2C9D               	goto	u1660
  6446     049C                     u1661:
  6447     049C  2D47               	goto	l2254
  6448     049D                     u1660:
  6449     049D                     l2206:
  6450     049D  1C7B               	btfss	___fladd@grs,0
  6451     049E  2CA0               	goto	u1671
  6452     049F  2CA1               	goto	u1670
  6453     04A0                     u1671:
  6454     04A0  2CA5               	goto	l2210
  6455     04A1                     u1670:
  6456     04A1                     l2208:
  6457     04A1  367B               	lsrf	___fladd@grs,w
  6458     04A2  3801               	iorlw	1
  6459     04A3  00FB               	movwf	___fladd@grs
  6460     04A4  2CA7               	goto	l2212
  6461     04A5                     l2210:
  6462     04A5  1003               	clrc
  6463     04A6  0CFB               	rrf	___fladd@grs,f
  6464     04A7                     l2212:
  6465     04A7  1C70               	btfss	___fladd@b,0
  6466     04A8  2CAA               	goto	u1681
  6467     04A9  2CAB               	goto	u1680
  6468     04AA                     u1681:
  6469     04AA  2CAC               	goto	l2216
  6470     04AB                     u1680:
  6471     04AB                     l2214:
  6472     04AB  17FB               	bsf	___fladd@grs,7
  6473     04AC                     l2216:
  6474     04AC  3001               	movlw	1
  6475     04AD  0020               	movlb	0	; select bank0
  6476     04AE  00A0               	movwf	??___fladd
  6477     04AF                     u1695:
  6478     04AF  37F3               	asrf	___fladd@b+3,f
  6479     04B0  0CF2               	rrf	___fladd@b+2,f
  6480     04B1  0CF1               	rrf	___fladd@b+1,f
  6481     04B2  0CF0               	rrf	___fladd@b,f
  6482     04B3  0BA0               	decfsz	??___fladd& (0+127),f
  6483     04B4  2CAF               	goto	u1695
  6484     04B5                     l2218:
  6485     04B5  3001               	movlw	1
  6486     04B6  00A0               	movwf	??___fladd
  6487     04B7  0820               	movf	??___fladd,w
  6488     04B8  07FA               	addwf	___fladd@bexp,f
  6489     04B9  2D47               	goto	l2254
  6490     04BA                     l2220:
  6491     04BA  0873               	movf	___fladd@b+3,w
  6492     04BB  3A80               	xorlw	128
  6493     04BC  0020               	movlb	0	; select bank0
  6494     04BD  00A0               	movwf	??___fladd
  6495     04BE  0877               	movf	___fladd@a+3,w
  6496     04BF  3A80               	xorlw	128
  6497     04C0  0220               	subwf	??___fladd,w
  6498     04C1  1D03               	skipz
  6499     04C2  2CCD               	goto	u1703
  6500     04C3  0876               	movf	___fladd@a+2,w
  6501     04C4  0272               	subwf	___fladd@b+2,w
  6502     04C5  1D03               	skipz
  6503     04C6  2CCD               	goto	u1703
  6504     04C7  0875               	movf	___fladd@a+1,w
  6505     04C8  0271               	subwf	___fladd@b+1,w
  6506     04C9  1D03               	skipz
  6507     04CA  2CCD               	goto	u1703
  6508     04CB  0874               	movf	___fladd@a,w
  6509     04CC  0270               	subwf	___fladd@b,w
  6510     04CD                     u1703:
  6511     04CD  1803               	skipnc
  6512     04CE  2CD0               	goto	u1701
  6513     04CF  2CD1               	goto	u1700
  6514     04D0                     u1701:
  6515     04D0  2D09               	goto	l2230
  6516     04D1                     u1700:
  6517     04D1                     l2222:
  6518     04D1  30FF               	movlw	255
  6519     04D2  00A0               	movwf	??___fladd
  6520     04D3  30FF               	movlw	255
  6521     04D4  00A1               	movwf	??___fladd+1
  6522     04D5  30FF               	movlw	255
  6523     04D6  00A2               	movwf	??___fladd+2
  6524     04D7  30FF               	movlw	255
  6525     04D8  00A3               	movwf	??___fladd+3
  6526     04D9  0870               	movf	___fladd@b,w
  6527     04DA  0274               	subwf	___fladd@a,w
  6528     04DB  00A4               	movwf	??___fladd+4
  6529     04DC  0871               	movf	___fladd@b+1,w
  6530     04DD  3B75               	subwfb	___fladd@a+1,w
  6531     04DE  00A5               	movwf	??___fladd+5
  6532     04DF  0872               	movf	___fladd@b+2,w
  6533     04E0  3B76               	subwfb	___fladd@a+2,w
  6534     04E1  00A6               	movwf	??___fladd+6
  6535     04E2  0873               	movf	___fladd@b+3,w
  6536     04E3  3B77               	subwfb	___fladd@a+3,w
  6537     04E4  00A7               	movwf	??___fladd+7
  6538     04E5  0824               	movf	??___fladd+4,w
  6539     04E6  07A0               	addwf	??___fladd,f
  6540     04E7  0825               	movf	??___fladd+5,w
  6541     04E8  3DA1               	addwfc	??___fladd+1,f
  6542     04E9  0826               	movf	??___fladd+6,w
  6543     04EA  3DA2               	addwfc	??___fladd+2,f
  6544     04EB  0827               	movf	??___fladd+7,w
  6545     04EC  3DA3               	addwfc	??___fladd+3,f
  6546     04ED  0823               	movf	??___fladd+3,w
  6547     04EE  00F3               	movwf	___fladd@b+3
  6548     04EF  0822               	movf	??___fladd+2,w
  6549     04F0  00F2               	movwf	___fladd@b+2
  6550     04F1  0821               	movf	??___fladd+1,w
  6551     04F2  00F1               	movwf	___fladd@b+1
  6552     04F3  0820               	movf	??___fladd,w
  6553     04F4  00F0               	movwf	___fladd@b
  6554     04F5                     l2224:
  6555     04F5  3080               	movlw	128
  6556     04F6  00A0               	movwf	??___fladd
  6557     04F7  0820               	movf	??___fladd,w
  6558     04F8  06F8               	xorwf	___fladd@signs,f
  6559     04F9  09FB               	comf	___fladd@grs,f
  6560     04FA  0AFB               	incf	___fladd@grs,f
  6561     04FB                     l2226:
  6562     04FB  087B               	movf	___fladd@grs,w
  6563     04FC  1D03               	btfss	3,2
  6564     04FD  2CFF               	goto	u1711
  6565     04FE  2D00               	goto	u1710
  6566     04FF                     u1711:
  6567     04FF  2D11               	goto	l1012
  6568     0500                     u1710:
  6569     0500                     l2228:
  6570     0500  3001               	movlw	1
  6571     0501  07F0               	addwf	___fladd@b,f
  6572     0502  3000               	movlw	0
  6573     0503  3DF1               	addwfc	___fladd@b+1,f
  6574     0504  3000               	movlw	0
  6575     0505  3DF2               	addwfc	___fladd@b+2,f
  6576     0506  3000               	movlw	0
  6577     0507  3DF3               	addwfc	___fladd@b+3,f
  6578     0508  2D11               	goto	l1012
  6579     0509                     l2230:
  6580     0509  0874               	movf	___fladd@a,w
  6581     050A  02F0               	subwf	___fladd@b,f
  6582     050B  0875               	movf	___fladd@a+1,w
  6583     050C  3BF1               	subwfb	___fladd@b+1,f
  6584     050D  0876               	movf	___fladd@a+2,w
  6585     050E  3BF2               	subwfb	___fladd@b+2,f
  6586     050F  0877               	movf	___fladd@a+3,w
  6587     0510  3BF3               	subwfb	___fladd@b+3,f
  6588     0511                     l1012:
  6589     0511  0873               	movf	___fladd@b+3,w
  6590     0512  0472               	iorwf	___fladd@b+2,w
  6591     0513  0471               	iorwf	___fladd@b+1,w
  6592     0514  0470               	iorwf	___fladd@b,w
  6593     0515  1D03               	skipz
  6594     0516  2D18               	goto	u1721
  6595     0517  2D19               	goto	u1720
  6596     0518                     u1721:
  6597     0518  2D43               	goto	l2252
  6598     0519                     u1720:
  6599     0519                     l2232:
  6600     0519  087B               	movf	___fladd@grs,w
  6601     051A  1D03               	btfss	3,2
  6602     051B  2D1D               	goto	u1731
  6603     051C  2D1E               	goto	u1730
  6604     051D                     u1731:
  6605     051D  2D43               	goto	l2252
  6606     051E                     u1730:
  6607     051E                     l2234:
  6608     051E  3000               	movlw	0
  6609     051F  00F3               	movwf	?___fladd+3
  6610     0520  3000               	movlw	0
  6611     0521  00F2               	movwf	?___fladd+2
  6612     0522  3000               	movlw	0
  6613     0523  00F1               	movwf	?___fladd+1
  6614     0524  3000               	movlw	0
  6615     0525  00F0               	movwf	?___fladd
  6616     0526  2DB7               	goto	l1004
  6617     0527                     l2238:
  6618     0527  3001               	movlw	1
  6619     0528                     u1745:
  6620     0528  35F0               	lslf	___fladd@b,f
  6621     0529  0DF1               	rlf	___fladd@b+1,f
  6622     052A  0DF2               	rlf	___fladd@b+2,f
  6623     052B  0DF3               	rlf	___fladd@b+3,f
  6624     052C  0B89               	decfsz	9,f
  6625     052D  2D28               	goto	u1745
  6626     052E                     l2240:
  6627     052E  1FFB               	btfss	___fladd@grs,7
  6628     052F  2D31               	goto	u1751
  6629     0530  2D32               	goto	u1750
  6630     0531                     u1751:
  6631     0531  2D33               	goto	l1016
  6632     0532                     u1750:
  6633     0532                     l2242:
  6634     0532  1470               	bsf	___fladd@b,0
  6635     0533                     l1016:
  6636     0533  1C7B               	btfss	___fladd@grs,0
  6637     0534  2D36               	goto	u1761
  6638     0535  2D37               	goto	u1760
  6639     0536                     u1761:
  6640     0536  2D3A               	goto	l2246
  6641     0537                     u1760:
  6642     0537                     l2244:
  6643     0537  1403               	setc
  6644     0538  0DFB               	rlf	___fladd@grs,f
  6645     0539  2D3C               	goto	l2248
  6646     053A                     l2246:
  6647     053A  1003               	clrc
  6648     053B  0DFB               	rlf	___fladd@grs,f
  6649     053C                     l2248:
  6650     053C  087A               	movf	___fladd@bexp,w
  6651     053D  1903               	btfsc	3,2
  6652     053E  2D40               	goto	u1771
  6653     053F  2D41               	goto	u1770
  6654     0540                     u1771:
  6655     0540  2D43               	goto	l2252
  6656     0541                     u1770:
  6657     0541                     l2250:
  6658     0541  3001               	movlw	1
  6659     0542  02FA               	subwf	___fladd@bexp,f
  6660     0543                     l2252:
  6661     0543  1FF2               	btfss	___fladd@b+2,7
  6662     0544  2D46               	goto	u1781
  6663     0545  2D47               	goto	u1780
  6664     0546                     u1781:
  6665     0546  2D27               	goto	l2238
  6666     0547                     u1780:
  6667     0547                     l2254:
  6668     0547  01F9               	clrf	___fladd@aexp
  6669     0548                     l2256:
  6670     0548  1FFB               	btfss	___fladd@grs,7
  6671     0549  2D4B               	goto	u1791
  6672     054A  2D4C               	goto	u1790
  6673     054B                     u1791:
  6674     054B  2D5A               	goto	l2264
  6675     054C                     u1790:
  6676     054C                     l2258:
  6677     054C  087B               	movf	___fladd@grs,w
  6678     054D  397F               	andlw	127
  6679     054E  1903               	btfsc	3,2
  6680     054F  2D51               	goto	u1801
  6681     0550  2D52               	goto	u1800
  6682     0551                     u1801:
  6683     0551  2D55               	goto	l1022
  6684     0552                     u1800:
  6685     0552                     l2260:
  6686     0552  01F9               	clrf	___fladd@aexp
  6687     0553  0AF9               	incf	___fladd@aexp,f
  6688     0554  2D5A               	goto	l2264
  6689     0555                     l1022:
  6690     0555  1C70               	btfss	___fladd@b,0
  6691     0556  2D58               	goto	u1811
  6692     0557  2D59               	goto	u1810
  6693     0558                     u1811:
  6694     0558  2D5A               	goto	l2264
  6695     0559                     u1810:
  6696     0559  2D52               	goto	l2260
  6697     055A                     l2264:
  6698     055A  0879               	movf	___fladd@aexp,w
  6699     055B  1903               	btfsc	3,2
  6700     055C  2D5E               	goto	u1821
  6701     055D  2D5F               	goto	u1820
  6702     055E                     u1821:
  6703     055E  2D8D               	goto	l1025
  6704     055F                     u1820:
  6705     055F                     l2266:
  6706     055F  3001               	movlw	1
  6707     0560  07F0               	addwf	___fladd@b,f
  6708     0561  3000               	movlw	0
  6709     0562  3DF1               	addwfc	___fladd@b+1,f
  6710     0563  3000               	movlw	0
  6711     0564  3DF2               	addwfc	___fladd@b+2,f
  6712     0565  3000               	movlw	0
  6713     0566  3DF3               	addwfc	___fladd@b+3,f
  6714     0567                     l2268:
  6715     0567  1C73               	btfss	___fladd@b+3,0
  6716     0568  2D6A               	goto	u1831
  6717     0569  2D6B               	goto	u1830
  6718     056A                     u1831:
  6719     056A  2D8D               	goto	l1025
  6720     056B                     u1830:
  6721     056B                     l2270:
  6722     056B  0870               	movf	___fladd@b,w
  6723     056C  0020               	movlb	0	; select bank0
  6724     056D  00A0               	movwf	??___fladd
  6725     056E  0871               	movf	___fladd@b+1,w
  6726     056F  00A1               	movwf	??___fladd+1
  6727     0570  0872               	movf	___fladd@b+2,w
  6728     0571  00A2               	movwf	??___fladd+2
  6729     0572  0873               	movf	___fladd@b+3,w
  6730     0573  00A3               	movwf	??___fladd+3
  6731     0574  3001               	movlw	1
  6732     0575  00A4               	movwf	??___fladd+4
  6733     0576                     u1845:
  6734     0576  37A3               	asrf	??___fladd+3,f
  6735     0577  0CA2               	rrf	??___fladd+2,f
  6736     0578  0CA1               	rrf	??___fladd+1,f
  6737     0579  0CA0               	rrf	??___fladd,f
  6738     057A                     u1840:
  6739     057A  0BA4               	decfsz	??___fladd+4,f
  6740     057B  2D76               	goto	u1845
  6741     057C  0823               	movf	??___fladd+3,w
  6742     057D  00F3               	movwf	___fladd@b+3
  6743     057E  0822               	movf	??___fladd+2,w
  6744     057F  00F2               	movwf	___fladd@b+2
  6745     0580  0821               	movf	??___fladd+1,w
  6746     0581  00F1               	movwf	___fladd@b+1
  6747     0582  0820               	movf	??___fladd,w
  6748     0583  00F0               	movwf	___fladd@b
  6749     0584  0A7A               	incf	___fladd@bexp,w
  6750     0585  1903               	btfsc	3,2
  6751     0586  2D88               	goto	u1851
  6752     0587  2D89               	goto	u1850
  6753     0588                     u1851:
  6754     0588  2D8D               	goto	l1025
  6755     0589                     u1850:
  6756     0589                     l2272:
  6757     0589  3001               	movlw	1
  6758     058A  00A0               	movwf	??___fladd
  6759     058B  0820               	movf	??___fladd,w
  6760     058C  07FA               	addwf	___fladd@bexp,f
  6761     058D                     l1025:
  6762     058D  0A7A               	incf	___fladd@bexp,w
  6763     058E  1903               	btfsc	3,2
  6764     058F  2D91               	goto	u1861
  6765     0590  2D92               	goto	u1860
  6766     0591                     u1861:
  6767     0591  2D97               	goto	l2276
  6768     0592                     u1860:
  6769     0592                     l2274:
  6770     0592  087A               	movf	___fladd@bexp,w
  6771     0593  1D03               	btfss	3,2
  6772     0594  2D96               	goto	u1871
  6773     0595  2D97               	goto	u1870
  6774     0596                     u1871:
  6775     0596  2DA5               	goto	l2282
  6776     0597                     u1870:
  6777     0597                     l2276:
  6778     0597  3000               	movlw	0
  6779     0598  00F3               	movwf	___fladd@b+3
  6780     0599  3000               	movlw	0
  6781     059A  00F2               	movwf	___fladd@b+2
  6782     059B  3000               	movlw	0
  6783     059C  00F1               	movwf	___fladd@b+1
  6784     059D  3000               	movlw	0
  6785     059E  00F0               	movwf	___fladd@b
  6786     059F                     l2278:
  6787     059F  087A               	movf	___fladd@bexp,w
  6788     05A0  1D03               	btfss	3,2
  6789     05A1  2DA3               	goto	u1881
  6790     05A2  2DA4               	goto	u1880
  6791     05A3                     u1881:
  6792     05A3  2DA5               	goto	l2282
  6793     05A4                     u1880:
  6794     05A4                     l2280:
  6795     05A4  01F8               	clrf	___fladd@signs
  6796     05A5                     l2282:
  6797     05A5  1C7A               	btfss	___fladd@bexp,0
  6798     05A6  2DA8               	goto	u1891
  6799     05A7  2DA9               	goto	u1890
  6800     05A8                     u1891:
  6801     05A8  2DAB               	goto	l2286
  6802     05A9                     u1890:
  6803     05A9                     l2284:
  6804     05A9  17F2               	bsf	___fladd@b+2,7
  6805     05AA  2DB0               	goto	l1033
  6806     05AB                     l2286:
  6807     05AB  307F               	movlw	127
  6808     05AC  0020               	movlb	0	; select bank0
  6809     05AD  00A0               	movwf	??___fladd
  6810     05AE  0820               	movf	??___fladd,w
  6811     05AF  05F2               	andwf	___fladd@b+2,f
  6812     05B0                     l1033:
  6813     05B0  367A               	lsrf	___fladd@bexp,w
  6814     05B1  00F3               	movwf	___fladd@b+3
  6815     05B2                     l2288:
  6816     05B2  1FF8               	btfss	___fladd@signs,7
  6817     05B3  2DB5               	goto	u1901
  6818     05B4  2DB6               	goto	u1900
  6819     05B5                     u1901:
  6820     05B5  2DB7               	goto	l1034
  6821     05B6                     u1900:
  6822     05B6                     l2290:
  6823     05B6  17F3               	bsf	___fladd@b+3,7
  6824     05B7                     l1034:
  6825     05B7                     l1004:
  6826     05B7  0008               	return
  6827     05B8                     __end_of___fladd:
  6828                           
  6829                           	psect	text34
  6830     05B8                     __ptext34:	
  6831 ;; *************** function ___flmul *****************
  6832 ;; Defined at:
  6833 ;;		line 8 in file "C:\Program Files\Microchip\xc8\v2.40\pic\sources\c99\common\sprcmul.c"
  6834 ;; Parameters:    Size  Location     Type
  6835 ;;  b               4   16[BANK0 ] unsigned char 
  6836 ;;  a               4   20[BANK0 ] unsigned char 
  6837 ;; Auto vars:     Size  Location     Type
  6838 ;;  prod            4   36[BANK0 ] struct .
  6839 ;;  grs             4   30[BANK0 ] unsigned long 
  6840 ;;  temp            2   40[BANK0 ] struct .
  6841 ;;  bexp            1   35[BANK0 ] unsigned char 
  6842 ;;  aexp            1   34[BANK0 ] unsigned char 
  6843 ;;  sign            1   29[BANK0 ] unsigned char 
  6844 ;; Return value:  Size  Location     Type
  6845 ;;                  4   16[BANK0 ] unsigned char 
  6846 ;; Registers used:
  6847 ;;		wreg, status,2, status,0, pclath, cstack
  6848 ;; Tracked objects:
  6849 ;;		On entry : 0/0
  6850 ;;		On exit  : 0/0
  6851 ;;		Unchanged: 0/0
  6852 ;; Data sizes:     COMMON   BANK0   BANK1   BANK2   BANK3   BANK4
  6853 ;;      Params:         0       8       0       0       0       0
  6854 ;;      Locals:         0      13       0       0       0       0
  6855 ;;      Temps:          0       5       0       0       0       0
  6856 ;;      Totals:         0      26       0       0       0       0
  6857 ;;Total ram usage:       26 bytes
  6858 ;; Hardware stack levels used: 1
  6859 ;; Hardware stack levels required when called: 1
  6860 ;; This function calls:
  6861 ;;		__Umul8_16
  6862 ;; This function is called by:
  6863 ;;		_ADC2Display
  6864 ;; This function uses a non-reentrant model
  6865 ;;
  6866                           
  6867     05B8                     ___flmul:	
  6868                           ;psect for function ___flmul
  6869                           
  6870     05B8                     l2550:	
  6871                           ;incstack = 0
  6872                           ; Regs used in ___flmul: [wreg+status,2+status,0+pclath+cstack]
  6873                           
  6874     05B8  0020               	movlb	0	; select bank0
  6875     05B9  0833               	movf	___flmul@b+3,w
  6876     05BA  3980               	andlw	128
  6877     05BB  00BD               	movwf	___flmul@sign
  6878     05BC                     l2552:
  6879     05BC  3533               	lslf	___flmul@b+3,w
  6880     05BD  00C3               	movwf	___flmul@bexp
  6881     05BE                     l2554:
  6882     05BE  1FB2               	btfss	___flmul@b+2,7
  6883     05BF  2DC1               	goto	u2341
  6884     05C0  2DC2               	goto	u2340
  6885     05C1                     u2341:
  6886     05C1  2DC3               	goto	l2558
  6887     05C2                     u2340:
  6888     05C2                     l2556:
  6889     05C2  1443               	bsf	___flmul@bexp,0
  6890     05C3                     l2558:
  6891     05C3  0843               	movf	___flmul@bexp,w
  6892     05C4  1903               	btfsc	3,2
  6893     05C5  2DC7               	goto	u2351
  6894     05C6  2DC8               	goto	u2350
  6895     05C7                     u2351:
  6896     05C7  2DD7               	goto	l2566
  6897     05C8                     u2350:
  6898     05C8                     l2560:
  6899     05C8  0A43               	incf	___flmul@bexp,w
  6900     05C9  1D03               	btfss	3,2
  6901     05CA  2DCC               	goto	u2361
  6902     05CB  2DCD               	goto	u2360
  6903     05CC                     u2361:
  6904     05CC  2DD5               	goto	l2564
  6905     05CD                     u2360:
  6906     05CD                     l2562:
  6907     05CD  3000               	movlw	0
  6908     05CE  00B3               	movwf	___flmul@b+3
  6909     05CF  3000               	movlw	0
  6910     05D0  00B2               	movwf	___flmul@b+2
  6911     05D1  3000               	movlw	0
  6912     05D2  00B1               	movwf	___flmul@b+1
  6913     05D3  3000               	movlw	0
  6914     05D4  00B0               	movwf	___flmul@b
  6915     05D5                     l2564:
  6916     05D5  17B2               	bsf	___flmul@b+2,7
  6917     05D6  2DDF               	goto	l2568
  6918     05D7                     l2566:
  6919     05D7  3000               	movlw	0
  6920     05D8  00B3               	movwf	___flmul@b+3
  6921     05D9  3000               	movlw	0
  6922     05DA  00B2               	movwf	___flmul@b+2
  6923     05DB  3000               	movlw	0
  6924     05DC  00B1               	movwf	___flmul@b+1
  6925     05DD  3000               	movlw	0
  6926     05DE  00B0               	movwf	___flmul@b
  6927     05DF                     l2568:
  6928     05DF  0837               	movf	___flmul@a+3,w
  6929     05E0  3980               	andlw	128
  6930     05E1  00B8               	movwf	??___flmul
  6931     05E2  0838               	movf	??___flmul,w
  6932     05E3  06BD               	xorwf	___flmul@sign,f
  6933     05E4                     l2570:
  6934     05E4  3537               	lslf	___flmul@a+3,w
  6935     05E5  00C2               	movwf	___flmul@aexp
  6936     05E6                     l2572:
  6937     05E6  1FB6               	btfss	___flmul@a+2,7
  6938     05E7  2DE9               	goto	u2371
  6939     05E8  2DEA               	goto	u2370
  6940     05E9                     u2371:
  6941     05E9  2DEB               	goto	l2576
  6942     05EA                     u2370:
  6943     05EA                     l2574:
  6944     05EA  1442               	bsf	___flmul@aexp,0
  6945     05EB                     l2576:
  6946     05EB  0842               	movf	___flmul@aexp,w
  6947     05EC  1903               	btfsc	3,2
  6948     05ED  2DEF               	goto	u2381
  6949     05EE  2DF0               	goto	u2380
  6950     05EF                     u2381:
  6951     05EF  2DFF               	goto	l2584
  6952     05F0                     u2380:
  6953     05F0                     l2578:
  6954     05F0  0A42               	incf	___flmul@aexp,w
  6955     05F1  1D03               	btfss	3,2
  6956     05F2  2DF4               	goto	u2391
  6957     05F3  2DF5               	goto	u2390
  6958     05F4                     u2391:
  6959     05F4  2DFD               	goto	l2582
  6960     05F5                     u2390:
  6961     05F5                     l2580:
  6962     05F5  3000               	movlw	0
  6963     05F6  00B7               	movwf	___flmul@a+3
  6964     05F7  3000               	movlw	0
  6965     05F8  00B6               	movwf	___flmul@a+2
  6966     05F9  3000               	movlw	0
  6967     05FA  00B5               	movwf	___flmul@a+1
  6968     05FB  3000               	movlw	0
  6969     05FC  00B4               	movwf	___flmul@a
  6970     05FD                     l2582:
  6971     05FD  17B6               	bsf	___flmul@a+2,7
  6972     05FE  2E07               	goto	l2586
  6973     05FF                     l2584:
  6974     05FF  3000               	movlw	0
  6975     0600  00B7               	movwf	___flmul@a+3
  6976     0601  3000               	movlw	0
  6977     0602  00B6               	movwf	___flmul@a+2
  6978     0603  3000               	movlw	0
  6979     0604  00B5               	movwf	___flmul@a+1
  6980     0605  3000               	movlw	0
  6981     0606  00B4               	movwf	___flmul@a
  6982     0607                     l2586:
  6983     0607  0842               	movf	___flmul@aexp,w
  6984     0608  1903               	btfsc	3,2
  6985     0609  2E0B               	goto	u2401
  6986     060A  2E0C               	goto	u2400
  6987     060B                     u2401:
  6988     060B  2E11               	goto	l2590
  6989     060C                     u2400:
  6990     060C                     l2588:
  6991     060C  0843               	movf	___flmul@bexp,w
  6992     060D  1D03               	btfss	3,2
  6993     060E  2E10               	goto	u2411
  6994     060F  2E11               	goto	u2410
  6995     0610                     u2411:
  6996     0610  2E1A               	goto	l2594
  6997     0611                     u2410:
  6998     0611                     l2590:
  6999     0611  3000               	movlw	0
  7000     0612  00B3               	movwf	?___flmul+3
  7001     0613  3000               	movlw	0
  7002     0614  00B2               	movwf	?___flmul+2
  7003     0615  3000               	movlw	0
  7004     0616  00B1               	movwf	?___flmul+1
  7005     0617  3000               	movlw	0
  7006     0618  00B0               	movwf	?___flmul
  7007     0619  2FF2               	goto	l1087
  7008     061A                     l2594:
  7009     061A  0830               	movf	___flmul@b,w
  7010     061B  00F0               	movwf	__Umul8_16@multiplicand
  7011     061C  0836               	movf	___flmul@a+2,w
  7012     061D  3180  2005  3185   	fcall	__Umul8_16
  7013     0620  0871               	movf	?__Umul8_16+1,w
  7014     0621  0020               	movlb	0	; select bank0
  7015     0622  00C9               	movwf	___flmul@temp+1
  7016     0623  0870               	movf	?__Umul8_16,w
  7017     0624  00C8               	movwf	___flmul@temp
  7018     0625                     l2596:
  7019     0625  0848               	movf	___flmul@temp,w
  7020     0626  00B8               	movwf	??___flmul
  7021     0627  01B9               	clrf	??___flmul+1
  7022     0628  01BA               	clrf	??___flmul+2
  7023     0629  01BB               	clrf	??___flmul+3
  7024     062A  083B               	movf	??___flmul+3,w
  7025     062B  00C1               	movwf	___flmul@grs+3
  7026     062C  083A               	movf	??___flmul+2,w
  7027     062D  00C0               	movwf	___flmul@grs+2
  7028     062E  0839               	movf	??___flmul+1,w
  7029     062F  00BF               	movwf	___flmul@grs+1
  7030     0630  0838               	movf	??___flmul,w
  7031     0631  00BE               	movwf	___flmul@grs
  7032     0632                     l2598:
  7033     0632  0849               	movf	___flmul@temp+1,w
  7034     0633  00B8               	movwf	??___flmul
  7035     0634  01B9               	clrf	??___flmul+1
  7036     0635  01BA               	clrf	??___flmul+2
  7037     0636  01BB               	clrf	??___flmul+3
  7038     0637  083B               	movf	??___flmul+3,w
  7039     0638  00C7               	movwf	___flmul@prod+3
  7040     0639  083A               	movf	??___flmul+2,w
  7041     063A  00C6               	movwf	___flmul@prod+2
  7042     063B  0839               	movf	??___flmul+1,w
  7043     063C  00C5               	movwf	___flmul@prod+1
  7044     063D  0838               	movf	??___flmul,w
  7045     063E  00C4               	movwf	___flmul@prod
  7046     063F  0831               	movf	___flmul@b+1,w
  7047     0640  00F0               	movwf	__Umul8_16@multiplicand
  7048     0641  0835               	movf	___flmul@a+1,w
  7049     0642  3180  2005  3185   	fcall	__Umul8_16
  7050     0645  0871               	movf	?__Umul8_16+1,w
  7051     0646  0020               	movlb	0	; select bank0
  7052     0647  00C9               	movwf	___flmul@temp+1
  7053     0648  0870               	movf	?__Umul8_16,w
  7054     0649  00C8               	movwf	___flmul@temp
  7055     064A                     l2600:
  7056     064A  0848               	movf	___flmul@temp,w
  7057     064B  00B8               	movwf	??___flmul
  7058     064C  01B9               	clrf	??___flmul+1
  7059     064D  01BA               	clrf	??___flmul+2
  7060     064E  01BB               	clrf	??___flmul+3
  7061     064F  0838               	movf	??___flmul,w
  7062     0650  07BE               	addwf	___flmul@grs,f
  7063     0651  0839               	movf	??___flmul+1,w
  7064     0652  3DBF               	addwfc	___flmul@grs+1,f
  7065     0653  083A               	movf	??___flmul+2,w
  7066     0654  3DC0               	addwfc	___flmul@grs+2,f
  7067     0655  083B               	movf	??___flmul+3,w
  7068     0656  3DC1               	addwfc	___flmul@grs+3,f
  7069     0657                     l2602:
  7070     0657  0849               	movf	___flmul@temp+1,w
  7071     0658  00B8               	movwf	??___flmul
  7072     0659  01B9               	clrf	??___flmul+1
  7073     065A  01BA               	clrf	??___flmul+2
  7074     065B  01BB               	clrf	??___flmul+3
  7075     065C  0838               	movf	??___flmul,w
  7076     065D  07C4               	addwf	___flmul@prod,f
  7077     065E  0839               	movf	??___flmul+1,w
  7078     065F  3DC5               	addwfc	___flmul@prod+1,f
  7079     0660  083A               	movf	??___flmul+2,w
  7080     0661  3DC6               	addwfc	___flmul@prod+2,f
  7081     0662  083B               	movf	??___flmul+3,w
  7082     0663  3DC7               	addwfc	___flmul@prod+3,f
  7083     0664  0832               	movf	___flmul@b+2,w
  7084     0665  00F0               	movwf	__Umul8_16@multiplicand
  7085     0666  0834               	movf	___flmul@a,w
  7086     0667  3180  2005  3185   	fcall	__Umul8_16
  7087     066A  0871               	movf	?__Umul8_16+1,w
  7088     066B  0020               	movlb	0	; select bank0
  7089     066C  00C9               	movwf	___flmul@temp+1
  7090     066D  0870               	movf	?__Umul8_16,w
  7091     066E  00C8               	movwf	___flmul@temp
  7092     066F                     l2604:
  7093     066F  0848               	movf	___flmul@temp,w
  7094     0670  00B8               	movwf	??___flmul
  7095     0671  01B9               	clrf	??___flmul+1
  7096     0672  01BA               	clrf	??___flmul+2
  7097     0673  01BB               	clrf	??___flmul+3
  7098     0674  0838               	movf	??___flmul,w
  7099     0675  07BE               	addwf	___flmul@grs,f
  7100     0676  0839               	movf	??___flmul+1,w
  7101     0677  3DBF               	addwfc	___flmul@grs+1,f
  7102     0678  083A               	movf	??___flmul+2,w
  7103     0679  3DC0               	addwfc	___flmul@grs+2,f
  7104     067A  083B               	movf	??___flmul+3,w
  7105     067B  3DC1               	addwfc	___flmul@grs+3,f
  7106     067C                     l2606:
  7107     067C  0849               	movf	___flmul@temp+1,w
  7108     067D  00B8               	movwf	??___flmul
  7109     067E  01B9               	clrf	??___flmul+1
  7110     067F  01BA               	clrf	??___flmul+2
  7111     0680  01BB               	clrf	??___flmul+3
  7112     0681  0838               	movf	??___flmul,w
  7113     0682  07C4               	addwf	___flmul@prod,f
  7114     0683  0839               	movf	??___flmul+1,w
  7115     0684  3DC5               	addwfc	___flmul@prod+1,f
  7116     0685  083A               	movf	??___flmul+2,w
  7117     0686  3DC6               	addwfc	___flmul@prod+2,f
  7118     0687  083B               	movf	??___flmul+3,w
  7119     0688  3DC7               	addwfc	___flmul@prod+3,f
  7120     0689                     l2608:
  7121     0689  3008               	movlw	8
  7122     068A                     u2425:
  7123     068A  35BE               	lslf	___flmul@grs,f
  7124     068B  0DBF               	rlf	___flmul@grs+1,f
  7125     068C  0DC0               	rlf	___flmul@grs+2,f
  7126     068D  0DC1               	rlf	___flmul@grs+3,f
  7127     068E  0B89               	decfsz	9,f
  7128     068F  2E8A               	goto	u2425
  7129     0690                     l2610:
  7130     0690  0831               	movf	___flmul@b+1,w
  7131     0691  00F0               	movwf	__Umul8_16@multiplicand
  7132     0692  0834               	movf	___flmul@a,w
  7133     0693  3180  2005  3185   	fcall	__Umul8_16
  7134     0696  0871               	movf	?__Umul8_16+1,w
  7135     0697  0020               	movlb	0	; select bank0
  7136     0698  00C9               	movwf	___flmul@temp+1
  7137     0699  0870               	movf	?__Umul8_16,w
  7138     069A  00C8               	movwf	___flmul@temp
  7139     069B                     l2612:
  7140     069B  0848               	movf	___flmul@temp,w
  7141     069C  07BE               	addwf	___flmul@grs,f
  7142     069D  0849               	movf	___flmul@temp+1,w
  7143     069E  3DBF               	addwfc	___flmul@grs+1,f
  7144     069F  3000               	movlw	0
  7145     06A0  3DC0               	addwfc	___flmul@grs+2,f
  7146     06A1  3DC1               	addwfc	___flmul@grs+3,f
  7147     06A2                     l2614:
  7148     06A2  0830               	movf	___flmul@b,w
  7149     06A3  00F0               	movwf	__Umul8_16@multiplicand
  7150     06A4  0835               	movf	___flmul@a+1,w
  7151     06A5  3180  2005  3185   	fcall	__Umul8_16
  7152     06A8  0871               	movf	?__Umul8_16+1,w
  7153     06A9  0020               	movlb	0	; select bank0
  7154     06AA  00C9               	movwf	___flmul@temp+1
  7155     06AB  0870               	movf	?__Umul8_16,w
  7156     06AC  00C8               	movwf	___flmul@temp
  7157     06AD                     l2616:
  7158     06AD  0848               	movf	___flmul@temp,w
  7159     06AE  07BE               	addwf	___flmul@grs,f
  7160     06AF  0849               	movf	___flmul@temp+1,w
  7161     06B0  3DBF               	addwfc	___flmul@grs+1,f
  7162     06B1  3000               	movlw	0
  7163     06B2  3DC0               	addwfc	___flmul@grs+2,f
  7164     06B3  3DC1               	addwfc	___flmul@grs+3,f
  7165     06B4                     l2618:
  7166     06B4  3008               	movlw	8
  7167     06B5                     u2435:
  7168     06B5  35BE               	lslf	___flmul@grs,f
  7169     06B6  0DBF               	rlf	___flmul@grs+1,f
  7170     06B7  0DC0               	rlf	___flmul@grs+2,f
  7171     06B8  0DC1               	rlf	___flmul@grs+3,f
  7172     06B9  0B89               	decfsz	9,f
  7173     06BA  2EB5               	goto	u2435
  7174     06BB  0830               	movf	___flmul@b,w
  7175     06BC  00F0               	movwf	__Umul8_16@multiplicand
  7176     06BD  0834               	movf	___flmul@a,w
  7177     06BE  3180  2005  3185   	fcall	__Umul8_16
  7178     06C1  0871               	movf	?__Umul8_16+1,w
  7179     06C2  0020               	movlb	0	; select bank0
  7180     06C3  00C9               	movwf	___flmul@temp+1
  7181     06C4  0870               	movf	?__Umul8_16,w
  7182     06C5  00C8               	movwf	___flmul@temp
  7183     06C6                     l2620:
  7184     06C6  0848               	movf	___flmul@temp,w
  7185     06C7  07BE               	addwf	___flmul@grs,f
  7186     06C8  0849               	movf	___flmul@temp+1,w
  7187     06C9  3DBF               	addwfc	___flmul@grs+1,f
  7188     06CA  3000               	movlw	0
  7189     06CB  3DC0               	addwfc	___flmul@grs+2,f
  7190     06CC  3DC1               	addwfc	___flmul@grs+3,f
  7191     06CD                     l2622:
  7192     06CD  0831               	movf	___flmul@b+1,w
  7193     06CE  00F0               	movwf	__Umul8_16@multiplicand
  7194     06CF  0836               	movf	___flmul@a+2,w
  7195     06D0  3180  2005  3185   	fcall	__Umul8_16
  7196     06D3  0871               	movf	?__Umul8_16+1,w
  7197     06D4  0020               	movlb	0	; select bank0
  7198     06D5  00C9               	movwf	___flmul@temp+1
  7199     06D6  0870               	movf	?__Umul8_16,w
  7200     06D7  00C8               	movwf	___flmul@temp
  7201     06D8  0848               	movf	___flmul@temp,w
  7202     06D9  07C4               	addwf	___flmul@prod,f
  7203     06DA  0849               	movf	___flmul@temp+1,w
  7204     06DB  3DC5               	addwfc	___flmul@prod+1,f
  7205     06DC  3000               	movlw	0
  7206     06DD  3DC6               	addwfc	___flmul@prod+2,f
  7207     06DE  3DC7               	addwfc	___flmul@prod+3,f
  7208     06DF                     l2624:
  7209     06DF  0832               	movf	___flmul@b+2,w
  7210     06E0  00F0               	movwf	__Umul8_16@multiplicand
  7211     06E1  0835               	movf	___flmul@a+1,w
  7212     06E2  3180  2005  3185   	fcall	__Umul8_16
  7213     06E5  0871               	movf	?__Umul8_16+1,w
  7214     06E6  0020               	movlb	0	; select bank0
  7215     06E7  00C9               	movwf	___flmul@temp+1
  7216     06E8  0870               	movf	?__Umul8_16,w
  7217     06E9  00C8               	movwf	___flmul@temp
  7218     06EA                     l2626:
  7219     06EA  0848               	movf	___flmul@temp,w
  7220     06EB  07C4               	addwf	___flmul@prod,f
  7221     06EC  0849               	movf	___flmul@temp+1,w
  7222     06ED  3DC5               	addwfc	___flmul@prod+1,f
  7223     06EE  3000               	movlw	0
  7224     06EF  3DC6               	addwfc	___flmul@prod+2,f
  7225     06F0  3DC7               	addwfc	___flmul@prod+3,f
  7226     06F1  0832               	movf	___flmul@b+2,w
  7227     06F2  00F0               	movwf	__Umul8_16@multiplicand
  7228     06F3  0836               	movf	___flmul@a+2,w
  7229     06F4  3180  2005  3185   	fcall	__Umul8_16
  7230     06F7  0871               	movf	?__Umul8_16+1,w
  7231     06F8  0020               	movlb	0	; select bank0
  7232     06F9  00C9               	movwf	___flmul@temp+1
  7233     06FA  0870               	movf	?__Umul8_16,w
  7234     06FB  00C8               	movwf	___flmul@temp
  7235     06FC                     l2628:
  7236     06FC  0848               	movf	___flmul@temp,w
  7237     06FD  00B8               	movwf	??___flmul
  7238     06FE  0849               	movf	___flmul@temp+1,w
  7239     06FF  00B9               	movwf	??___flmul+1
  7240     0700  01BA               	clrf	??___flmul+2
  7241     0701  01BB               	clrf	??___flmul+3
  7242     0702  3008               	movlw	8
  7243     0703                     u2445:
  7244     0703  35B8               	lslf	??___flmul,f
  7245     0704  0DB9               	rlf	??___flmul+1,f
  7246     0705  0DBA               	rlf	??___flmul+2,f
  7247     0706  0DBB               	rlf	??___flmul+3,f
  7248     0707                     u2440:
  7249     0707  0B89               	decfsz	9,f
  7250     0708  2F03               	goto	u2445
  7251     0709  0838               	movf	??___flmul,w
  7252     070A  07C4               	addwf	___flmul@prod,f
  7253     070B  0839               	movf	??___flmul+1,w
  7254     070C  3DC5               	addwfc	___flmul@prod+1,f
  7255     070D  083A               	movf	??___flmul+2,w
  7256     070E  3DC6               	addwfc	___flmul@prod+2,f
  7257     070F  083B               	movf	??___flmul+3,w
  7258     0710  3DC7               	addwfc	___flmul@prod+3,f
  7259     0711                     l2630:
  7260     0711  083E               	movf	___flmul@grs,w
  7261     0712  00B8               	movwf	??___flmul
  7262     0713  083F               	movf	___flmul@grs+1,w
  7263     0714  00B9               	movwf	??___flmul+1
  7264     0715  0840               	movf	___flmul@grs+2,w
  7265     0716  00BA               	movwf	??___flmul+2
  7266     0717  0841               	movf	___flmul@grs+3,w
  7267     0718  00BB               	movwf	??___flmul+3
  7268     0719  3018               	movlw	24
  7269     071A                     u2455:
  7270     071A  36BB               	lsrf	??___flmul+3,f
  7271     071B  0CBA               	rrf	??___flmul+2,f
  7272     071C  0CB9               	rrf	??___flmul+1,f
  7273     071D  0CB8               	rrf	??___flmul,f
  7274     071E                     u2450:
  7275     071E  0B89               	decfsz	9,f
  7276     071F  2F1A               	goto	u2455
  7277     0720  0838               	movf	??___flmul,w
  7278     0721  07C4               	addwf	___flmul@prod,f
  7279     0722  0839               	movf	??___flmul+1,w
  7280     0723  3DC5               	addwfc	___flmul@prod+1,f
  7281     0724  083A               	movf	??___flmul+2,w
  7282     0725  3DC6               	addwfc	___flmul@prod+2,f
  7283     0726  083B               	movf	??___flmul+3,w
  7284     0727  3DC7               	addwfc	___flmul@prod+3,f
  7285     0728                     l2632:
  7286     0728  3008               	movlw	8
  7287     0729                     u2465:
  7288     0729  35BE               	lslf	___flmul@grs,f
  7289     072A  0DBF               	rlf	___flmul@grs+1,f
  7290     072B  0DC0               	rlf	___flmul@grs+2,f
  7291     072C  0DC1               	rlf	___flmul@grs+3,f
  7292     072D  0B89               	decfsz	9,f
  7293     072E  2F29               	goto	u2465
  7294     072F                     l2634:
  7295     072F  0843               	movf	___flmul@bexp,w
  7296     0730  0742               	addwf	___flmul@aexp,w
  7297     0731  00B8               	movwf	??___flmul
  7298     0732  01B9               	clrf	??___flmul+1
  7299     0733  0DB9               	rlf	??___flmul+1,f
  7300     0734  0838               	movf	??___flmul,w
  7301     0735  3E82               	addlw	130
  7302     0736  00C8               	movwf	___flmul@temp
  7303     0737  30FF               	movlw	255
  7304     0738  3D39               	addwfc	??___flmul+1,w
  7305     0739  00C9               	movwf	___flmul@temp+1
  7306     073A  2F52               	goto	l2646
  7307     073B                     l2636:
  7308     073B  3001               	movlw	1
  7309     073C                     u2475:
  7310     073C  35C4               	lslf	___flmul@prod,f
  7311     073D  0DC5               	rlf	___flmul@prod+1,f
  7312     073E  0DC6               	rlf	___flmul@prod+2,f
  7313     073F  0DC7               	rlf	___flmul@prod+3,f
  7314     0740  0B89               	decfsz	9,f
  7315     0741  2F3C               	goto	u2475
  7316     0742                     l2638:
  7317     0742  1FC1               	btfss	___flmul@grs+3,7
  7318     0743  2F45               	goto	u2481
  7319     0744  2F46               	goto	u2480
  7320     0745                     u2481:
  7321     0745  2F47               	goto	l2642
  7322     0746                     u2480:
  7323     0746                     l2640:
  7324     0746  1444               	bsf	___flmul@prod,0
  7325     0747                     l2642:
  7326     0747  3001               	movlw	1
  7327     0748                     u2495:
  7328     0748  35BE               	lslf	___flmul@grs,f
  7329     0749  0DBF               	rlf	___flmul@grs+1,f
  7330     074A  0DC0               	rlf	___flmul@grs+2,f
  7331     074B  0DC1               	rlf	___flmul@grs+3,f
  7332     074C  0B89               	decfsz	9,f
  7333     074D  2F48               	goto	u2495
  7334     074E                     l2644:
  7335     074E  30FF               	movlw	255
  7336     074F  07C8               	addwf	___flmul@temp,f
  7337     0750  30FF               	movlw	255
  7338     0751  3DC9               	addwfc	___flmul@temp+1,f
  7339     0752                     l2646:
  7340     0752  1FC6               	btfss	___flmul@prod+2,7
  7341     0753  2F55               	goto	u2501
  7342     0754  2F56               	goto	u2500
  7343     0755                     u2501:
  7344     0755  2F3B               	goto	l2636
  7345     0756                     u2500:
  7346     0756                     l2648:
  7347     0756  01C2               	clrf	___flmul@aexp
  7348     0757                     l2650:
  7349     0757  1FC1               	btfss	___flmul@grs+3,7
  7350     0758  2F5A               	goto	u2511
  7351     0759  2F5B               	goto	u2510
  7352     075A                     u2511:
  7353     075A  2F77               	goto	l2658
  7354     075B                     u2510:
  7355     075B                     l2652:
  7356     075B  30FF               	movlw	255
  7357     075C  053E               	andwf	___flmul@grs,w
  7358     075D  00B8               	movwf	??___flmul
  7359     075E  30FF               	movlw	255
  7360     075F  053F               	andwf	___flmul@grs+1,w
  7361     0760  00B9               	movwf	??___flmul+1
  7362     0761  30FF               	movlw	255
  7363     0762  0540               	andwf	___flmul@grs+2,w
  7364     0763  00BA               	movwf	??___flmul+2
  7365     0764  307F               	movlw	127
  7366     0765  0541               	andwf	___flmul@grs+3,w
  7367     0766  00BB               	movwf	??___flmul+3
  7368     0767  083B               	movf	??___flmul+3,w
  7369     0768  043A               	iorwf	??___flmul+2,w
  7370     0769  0439               	iorwf	??___flmul+1,w
  7371     076A  0438               	iorwf	??___flmul,w
  7372     076B  1903               	skipnz
  7373     076C  2F6E               	goto	u2521
  7374     076D  2F6F               	goto	u2520
  7375     076E                     u2521:
  7376     076E  2F72               	goto	l1093
  7377     076F                     u2520:
  7378     076F                     l2654:
  7379     076F  01C2               	clrf	___flmul@aexp
  7380     0770  0AC2               	incf	___flmul@aexp,f
  7381     0771  2F77               	goto	l2658
  7382     0772                     l1093:
  7383     0772  1C44               	btfss	___flmul@prod,0
  7384     0773  2F75               	goto	u2531
  7385     0774  2F76               	goto	u2530
  7386     0775                     u2531:
  7387     0775  2F77               	goto	l2658
  7388     0776                     u2530:
  7389     0776  2F6F               	goto	l2654
  7390     0777                     l2658:
  7391     0777  0842               	movf	___flmul@aexp,w
  7392     0778  1903               	btfsc	3,2
  7393     0779  2F7B               	goto	u2541
  7394     077A  2F7C               	goto	u2540
  7395     077B                     u2541:
  7396     077B  2FA4               	goto	l2668
  7397     077C                     u2540:
  7398     077C                     l2660:
  7399     077C  3001               	movlw	1
  7400     077D  07C4               	addwf	___flmul@prod,f
  7401     077E  3000               	movlw	0
  7402     077F  3DC5               	addwfc	___flmul@prod+1,f
  7403     0780  3000               	movlw	0
  7404     0781  3DC6               	addwfc	___flmul@prod+2,f
  7405     0782  3000               	movlw	0
  7406     0783  3DC7               	addwfc	___flmul@prod+3,f
  7407     0784                     l2662:
  7408     0784  1C47               	btfss	___flmul@prod+3,0
  7409     0785  2F87               	goto	u2551
  7410     0786  2F88               	goto	u2550
  7411     0787                     u2551:
  7412     0787  2FA4               	goto	l2668
  7413     0788                     u2550:
  7414     0788                     l2664:
  7415     0788  0844               	movf	___flmul@prod,w
  7416     0789  00B8               	movwf	??___flmul
  7417     078A  0845               	movf	___flmul@prod+1,w
  7418     078B  00B9               	movwf	??___flmul+1
  7419     078C  0846               	movf	___flmul@prod+2,w
  7420     078D  00BA               	movwf	??___flmul+2
  7421     078E  0847               	movf	___flmul@prod+3,w
  7422     078F  00BB               	movwf	??___flmul+3
  7423     0790  3001               	movlw	1
  7424     0791  00BC               	movwf	??___flmul+4
  7425     0792                     u2565:
  7426     0792  37BB               	asrf	??___flmul+3,f
  7427     0793  0CBA               	rrf	??___flmul+2,f
  7428     0794  0CB9               	rrf	??___flmul+1,f
  7429     0795  0CB8               	rrf	??___flmul,f
  7430     0796                     u2560:
  7431     0796  0BBC               	decfsz	??___flmul+4,f
  7432     0797  2F92               	goto	u2565
  7433     0798  083B               	movf	??___flmul+3,w
  7434     0799  00C7               	movwf	___flmul@prod+3
  7435     079A  083A               	movf	??___flmul+2,w
  7436     079B  00C6               	movwf	___flmul@prod+2
  7437     079C  0839               	movf	??___flmul+1,w
  7438     079D  00C5               	movwf	___flmul@prod+1
  7439     079E  0838               	movf	??___flmul,w
  7440     079F  00C4               	movwf	___flmul@prod
  7441     07A0                     l2666:
  7442     07A0  3001               	movlw	1
  7443     07A1  07C8               	addwf	___flmul@temp,f
  7444     07A2  3000               	movlw	0
  7445     07A3  3DC9               	addwfc	___flmul@temp+1,f
  7446     07A4                     l2668:
  7447     07A4  0849               	movf	___flmul@temp+1,w
  7448     07A5  3A80               	xorlw	128
  7449     07A6  00B8               	movwf	??___flmul
  7450     07A7  3080               	movlw	128
  7451     07A8  0238               	subwf	??___flmul,w
  7452     07A9  1D03               	skipz
  7453     07AA  2FAD               	goto	u2575
  7454     07AB  30FF               	movlw	255
  7455     07AC  0248               	subwf	___flmul@temp,w
  7456     07AD                     u2575:
  7457     07AD  1C03               	skipc
  7458     07AE  2FB0               	goto	u2571
  7459     07AF  2FB1               	goto	u2570
  7460     07B0                     u2571:
  7461     07B0  2FBB               	goto	l2672
  7462     07B1                     u2570:
  7463     07B1                     l2670:
  7464     07B1  307F               	movlw	127
  7465     07B2  0020               	movlb	0	; select bank0
  7466     07B3  00C7               	movwf	___flmul@prod+3
  7467     07B4  3080               	movlw	128
  7468     07B5  00C6               	movwf	___flmul@prod+2
  7469     07B6  3000               	movlw	0
  7470     07B7  00C5               	movwf	___flmul@prod+1
  7471     07B8  3000               	movlw	0
  7472     07B9  00C4               	movwf	___flmul@prod
  7473     07BA  2FE6               	goto	l1099
  7474     07BB                     l2672:
  7475     07BB  0020               	movlb	0	; select bank0
  7476     07BC  0849               	movf	___flmul@temp+1,w
  7477     07BD  3A80               	xorlw	128
  7478     07BE  00B8               	movwf	??___flmul
  7479     07BF  3080               	movlw	128
  7480     07C0  0238               	subwf	??___flmul,w
  7481     07C1  1D03               	skipz
  7482     07C2  2FC5               	goto	u2585
  7483     07C3  3001               	movlw	1
  7484     07C4  0248               	subwf	___flmul@temp,w
  7485     07C5                     u2585:
  7486     07C5  1803               	skipnc
  7487     07C6  2FC8               	goto	u2581
  7488     07C7  2FC9               	goto	u2580
  7489     07C8                     u2581:
  7490     07C8  2FD4               	goto	l2678
  7491     07C9                     u2580:
  7492     07C9                     l2674:
  7493     07C9  3000               	movlw	0
  7494     07CA  0020               	movlb	0	; select bank0
  7495     07CB  00C7               	movwf	___flmul@prod+3
  7496     07CC  3000               	movlw	0
  7497     07CD  00C6               	movwf	___flmul@prod+2
  7498     07CE  3000               	movlw	0
  7499     07CF  00C5               	movwf	___flmul@prod+1
  7500     07D0  3000               	movlw	0
  7501     07D1  00C4               	movwf	___flmul@prod
  7502     07D2                     l2676:
  7503     07D2  01BD               	clrf	___flmul@sign
  7504     07D3  2FE6               	goto	l1099
  7505     07D4                     l2678:
  7506     07D4  0020               	movlb	0	; select bank0
  7507     07D5  0848               	movf	___flmul@temp,w
  7508     07D6  00C3               	movwf	___flmul@bexp
  7509     07D7  30FF               	movlw	255
  7510     07D8  05C4               	andwf	___flmul@prod,f
  7511     07D9  30FF               	movlw	255
  7512     07DA  05C5               	andwf	___flmul@prod+1,f
  7513     07DB  307F               	movlw	127
  7514     07DC  05C6               	andwf	___flmul@prod+2,f
  7515     07DD  3000               	movlw	0
  7516     07DE  05C7               	andwf	___flmul@prod+3,f
  7517     07DF                     l2680:
  7518     07DF  1C43               	btfss	___flmul@bexp,0
  7519     07E0  2FE2               	goto	u2591
  7520     07E1  2FE3               	goto	u2590
  7521     07E2                     u2591:
  7522     07E2  2FE4               	goto	l2684
  7523     07E3                     u2590:
  7524     07E3                     l2682:
  7525     07E3  17C6               	bsf	___flmul@prod+2,7
  7526     07E4                     l2684:
  7527     07E4  3643               	lsrf	___flmul@bexp,w
  7528     07E5  00C7               	movwf	___flmul@prod+3
  7529     07E6                     l1099:
  7530     07E6  083D               	movf	___flmul@sign,w
  7531     07E7  00B8               	movwf	??___flmul
  7532     07E8  0838               	movf	??___flmul,w
  7533     07E9  04C7               	iorwf	___flmul@prod+3,f
  7534     07EA                     l2686:
  7535     07EA  0847               	movf	___flmul@prod+3,w
  7536     07EB  00B3               	movwf	?___flmul+3
  7537     07EC  0846               	movf	___flmul@prod+2,w
  7538     07ED  00B2               	movwf	?___flmul+2
  7539     07EE  0845               	movf	___flmul@prod+1,w
  7540     07EF  00B1               	movwf	?___flmul+1
  7541     07F0  0844               	movf	___flmul@prod,w
  7542     07F1  00B0               	movwf	?___flmul
  7543     07F2                     l1087:
  7544     07F2  0008               	return
  7545     07F3                     __end_of___flmul:
  7546                           
  7547                           	psect	text35
  7548     0005                     __ptext35:	
  7549 ;; *************** function __Umul8_16 *****************
  7550 ;; Defined at:
  7551 ;;		line 4 in file "C:\Program Files\Microchip\xc8\v2.40\pic\sources\c99\common\Umul8_16.c"
  7552 ;; Parameters:    Size  Location     Type
  7553 ;;  multiplier      1    wreg     unsigned char 
  7554 ;;  multiplicand    1    0[COMMON] unsigned char 
  7555 ;; Auto vars:     Size  Location     Type
  7556 ;;  multiplier      1    8[COMMON] unsigned char 
  7557 ;;  word_mpld       2    6[COMMON] unsigned int 
  7558 ;;  product         2    4[COMMON] unsigned int 
  7559 ;; Return value:  Size  Location     Type
  7560 ;;                  2    0[COMMON] unsigned int 
  7561 ;; Registers used:
  7562 ;;		wreg, status,2, status,0
  7563 ;; Tracked objects:
  7564 ;;		On entry : 0/0
  7565 ;;		On exit  : 0/0
  7566 ;;		Unchanged: 0/0
  7567 ;; Data sizes:     COMMON   BANK0   BANK1   BANK2   BANK3   BANK4
  7568 ;;      Params:         2       0       0       0       0       0
  7569 ;;      Locals:         5       0       0       0       0       0
  7570 ;;      Temps:          2       0       0       0       0       0
  7571 ;;      Totals:         9       0       0       0       0       0
  7572 ;;Total ram usage:        9 bytes
  7573 ;; Hardware stack levels used: 1
  7574 ;; This function calls:
  7575 ;;		Nothing
  7576 ;; This function is called by:
  7577 ;;		___flmul
  7578 ;; This function uses a non-reentrant model
  7579 ;;
  7580                           
  7581     0005                     __Umul8_16:	
  7582                           ;psect for function __Umul8_16
  7583                           
  7584                           
  7585                           ;incstack = 0
  7586                           ; Regs used in __Umul8_16: [wreg+status,2+status,0]
  7587                           ;__Umul8_16@multiplier stored from wreg
  7588     0005  00F8               	movwf	__Umul8_16@multiplier
  7589     0006                     l2292:
  7590     0006  01F4               	clrf	__Umul8_16@product
  7591     0007  01F5               	clrf	__Umul8_16@product+1
  7592     0008                     l2294:
  7593     0008  0870               	movf	__Umul8_16@multiplicand,w
  7594     0009  00F2               	movwf	??__Umul8_16
  7595     000A  01F3               	clrf	??__Umul8_16+1
  7596     000B  0872               	movf	??__Umul8_16,w
  7597     000C  00F6               	movwf	__Umul8_16@word_mpld
  7598     000D  0873               	movf	??__Umul8_16+1,w
  7599     000E  00F7               	movwf	__Umul8_16@word_mpld+1
  7600     000F                     l2296:
  7601     000F  1C78               	btfss	__Umul8_16@multiplier,0
  7602     0010  2812               	goto	u1911
  7603     0011  2813               	goto	u1910
  7604     0012                     u1911:
  7605     0012  2817               	goto	l1106
  7606     0013                     u1910:
  7607     0013                     l2298:
  7608     0013  0876               	movf	__Umul8_16@word_mpld,w
  7609     0014  07F4               	addwf	__Umul8_16@product,f
  7610     0015  0877               	movf	__Umul8_16@word_mpld+1,w
  7611     0016  3DF5               	addwfc	__Umul8_16@product+1,f
  7612     0017                     l1106:
  7613     0017  3001               	movlw	1
  7614     0018                     u1925:
  7615     0018  35F6               	lslf	__Umul8_16@word_mpld,f
  7616     0019  0DF7               	rlf	__Umul8_16@word_mpld+1,f
  7617     001A  0B89               	decfsz	9,f
  7618     001B  2818               	goto	u1925
  7619     001C  1003               	clrc
  7620     001D  0CF8               	rrf	__Umul8_16@multiplier,f
  7621     001E                     l2300:
  7622     001E  0878               	movf	__Umul8_16@multiplier,w
  7623     001F  1D03               	btfss	3,2
  7624     0020  2822               	goto	u1931
  7625     0021  2823               	goto	u1930
  7626     0022                     u1931:
  7627     0022  280F               	goto	l2296
  7628     0023                     u1930:
  7629     0023                     l2302:
  7630     0023  0875               	movf	__Umul8_16@product+1,w
  7631     0024  00F1               	movwf	?__Umul8_16+1
  7632     0025  0874               	movf	__Umul8_16@product,w
  7633     0026  00F0               	movwf	?__Umul8_16
  7634     0027                     l1108:
  7635     0027  0008               	return
  7636     0028                     __end_of__Umul8_16:
  7637                           
  7638                           	psect	text36
  7639     0202                     __ptext36:	
  7640 ;; *************** function ___fldiv *****************
  7641 ;; Defined at:
  7642 ;;		line 8 in file "C:\Program Files\Microchip\xc8\v2.40\pic\sources\c99\common\sprcdiv.c"
  7643 ;; Parameters:    Size  Location     Type
  7644 ;;  a               4   42[BANK0 ] unsigned int 
  7645 ;;  b               4   46[BANK0 ] unsigned int 
  7646 ;; Auto vars:     Size  Location     Type
  7647 ;;  grs             4   62[BANK0 ] unsigned long 
  7648 ;;  rem             4   55[BANK0 ] unsigned long 
  7649 ;;  new_exp         2   60[BANK0 ] int 
  7650 ;;  aexp            1   67[BANK0 ] unsigned char 
  7651 ;;  bexp            1   66[BANK0 ] unsigned char 
  7652 ;;  sign            1   59[BANK0 ] unsigned char 
  7653 ;; Return value:  Size  Location     Type
  7654 ;;                  4   42[BANK0 ] unsigned char 
  7655 ;; Registers used:
  7656 ;;		wreg, status,2, status,0
  7657 ;; Tracked objects:
  7658 ;;		On entry : 0/0
  7659 ;;		On exit  : 0/0
  7660 ;;		Unchanged: 0/0
  7661 ;; Data sizes:     COMMON   BANK0   BANK1   BANK2   BANK3   BANK4
  7662 ;;      Params:         0       8       0       0       0       0
  7663 ;;      Locals:         0      13       0       0       0       0
  7664 ;;      Temps:          0       5       0       0       0       0
  7665 ;;      Totals:         0      26       0       0       0       0
  7666 ;;Total ram usage:       26 bytes
  7667 ;; Hardware stack levels used: 1
  7668 ;; This function calls:
  7669 ;;		Nothing
  7670 ;; This function is called by:
  7671 ;;		_ADC2Display
  7672 ;; This function uses a non-reentrant model
  7673 ;;
  7674                           
  7675     0202                     ___fldiv:	
  7676                           ;psect for function ___fldiv
  7677                           
  7678     0202                     l2410:	
  7679                           ;incstack = 0
  7680                           ; Regs used in ___fldiv: [wreg+status,2+status,0]
  7681                           
  7682     0202  0020               	movlb	0	; select bank0
  7683     0203  0851               	movf	___fldiv@b+3,w
  7684     0204  3980               	andlw	128
  7685     0205  00DB               	movwf	___fldiv@sign
  7686     0206                     l2412:
  7687     0206  3551               	lslf	___fldiv@b+3,w
  7688     0207  00E2               	movwf	___fldiv@bexp
  7689     0208                     l2414:
  7690     0208  1FD0               	btfss	___fldiv@b+2,7
  7691     0209  2A0B               	goto	u2051
  7692     020A  2A0C               	goto	u2050
  7693     020B                     u2051:
  7694     020B  2A0D               	goto	l2418
  7695     020C                     u2050:
  7696     020C                     l2416:
  7697     020C  1462               	bsf	___fldiv@bexp,0
  7698     020D                     l2418:
  7699     020D  0862               	movf	___fldiv@bexp,w
  7700     020E  1903               	btfsc	3,2
  7701     020F  2A11               	goto	u2061
  7702     0210  2A12               	goto	u2060
  7703     0211                     u2061:
  7704     0211  2A22               	goto	l2428
  7705     0212                     u2060:
  7706     0212                     l2420:
  7707     0212  0A62               	incf	___fldiv@bexp,w
  7708     0213  1D03               	btfss	3,2
  7709     0214  2A16               	goto	u2071
  7710     0215  2A17               	goto	u2070
  7711     0216                     u2071:
  7712     0216  2A1F               	goto	l2424
  7713     0217                     u2070:
  7714     0217                     l2422:
  7715     0217  3000               	movlw	0
  7716     0218  00D1               	movwf	___fldiv@b+3
  7717     0219  3000               	movlw	0
  7718     021A  00D0               	movwf	___fldiv@b+2
  7719     021B  3000               	movlw	0
  7720     021C  00CF               	movwf	___fldiv@b+1
  7721     021D  3000               	movlw	0
  7722     021E  00CE               	movwf	___fldiv@b
  7723     021F                     l2424:
  7724     021F  17D0               	bsf	___fldiv@b+2,7
  7725     0220                     l2426:
  7726     0220  01D1               	clrf	___fldiv@b+3
  7727     0221  2A2A               	goto	l2430
  7728     0222                     l2428:
  7729     0222  3000               	movlw	0
  7730     0223  00D1               	movwf	___fldiv@b+3
  7731     0224  3000               	movlw	0
  7732     0225  00D0               	movwf	___fldiv@b+2
  7733     0226  3000               	movlw	0
  7734     0227  00CF               	movwf	___fldiv@b+1
  7735     0228  3000               	movlw	0
  7736     0229  00CE               	movwf	___fldiv@b
  7737     022A                     l2430:
  7738     022A  084D               	movf	___fldiv@a+3,w
  7739     022B  3980               	andlw	128
  7740     022C  00D2               	movwf	??___fldiv
  7741     022D  0852               	movf	??___fldiv,w
  7742     022E  06DB               	xorwf	___fldiv@sign,f
  7743     022F                     l2432:
  7744     022F  354D               	lslf	___fldiv@a+3,w
  7745     0230  00E3               	movwf	___fldiv@aexp
  7746     0231                     l2434:
  7747     0231  1FCC               	btfss	___fldiv@a+2,7
  7748     0232  2A34               	goto	u2081
  7749     0233  2A35               	goto	u2080
  7750     0234                     u2081:
  7751     0234  2A36               	goto	l2438
  7752     0235                     u2080:
  7753     0235                     l2436:
  7754     0235  1463               	bsf	___fldiv@aexp,0
  7755     0236                     l2438:
  7756     0236  0863               	movf	___fldiv@aexp,w
  7757     0237  1903               	btfsc	3,2
  7758     0238  2A3A               	goto	u2091
  7759     0239  2A3B               	goto	u2090
  7760     023A                     u2091:
  7761     023A  2A4B               	goto	l2448
  7762     023B                     u2090:
  7763     023B                     l2440:
  7764     023B  0A63               	incf	___fldiv@aexp,w
  7765     023C  1D03               	btfss	3,2
  7766     023D  2A3F               	goto	u2101
  7767     023E  2A40               	goto	u2100
  7768     023F                     u2101:
  7769     023F  2A48               	goto	l2444
  7770     0240                     u2100:
  7771     0240                     l2442:
  7772     0240  3000               	movlw	0
  7773     0241  00CD               	movwf	___fldiv@a+3
  7774     0242  3000               	movlw	0
  7775     0243  00CC               	movwf	___fldiv@a+2
  7776     0244  3000               	movlw	0
  7777     0245  00CB               	movwf	___fldiv@a+1
  7778     0246  3000               	movlw	0
  7779     0247  00CA               	movwf	___fldiv@a
  7780     0248                     l2444:
  7781     0248  17CC               	bsf	___fldiv@a+2,7
  7782     0249                     l2446:
  7783     0249  01CD               	clrf	___fldiv@a+3
  7784     024A  2A53               	goto	l1047
  7785     024B                     l2448:
  7786     024B  3000               	movlw	0
  7787     024C  00CD               	movwf	___fldiv@a+3
  7788     024D  3000               	movlw	0
  7789     024E  00CC               	movwf	___fldiv@a+2
  7790     024F  3000               	movlw	0
  7791     0250  00CB               	movwf	___fldiv@a+1
  7792     0251  3000               	movlw	0
  7793     0252  00CA               	movwf	___fldiv@a
  7794     0253                     l1047:
  7795     0253  084D               	movf	___fldiv@a+3,w
  7796     0254  044C               	iorwf	___fldiv@a+2,w
  7797     0255  044B               	iorwf	___fldiv@a+1,w
  7798     0256  044A               	iorwf	___fldiv@a,w
  7799     0257  1D03               	skipz
  7800     0258  2A5A               	goto	u2111
  7801     0259  2A5B               	goto	u2110
  7802     025A                     u2111:
  7803     025A  2A74               	goto	l2458
  7804     025B                     u2110:
  7805     025B                     l2450:
  7806     025B  3000               	movlw	0
  7807     025C  00D1               	movwf	___fldiv@b+3
  7808     025D  3000               	movlw	0
  7809     025E  00D0               	movwf	___fldiv@b+2
  7810     025F  3000               	movlw	0
  7811     0260  00CF               	movwf	___fldiv@b+1
  7812     0261  3000               	movlw	0
  7813     0262  00CE               	movwf	___fldiv@b
  7814     0263  3080               	movlw	128
  7815     0264  04D0               	iorwf	___fldiv@b+2,f
  7816     0265  307F               	movlw	127
  7817     0266  04D1               	iorwf	___fldiv@b+3,f
  7818     0267                     l2452:
  7819     0267  085B               	movf	___fldiv@sign,w
  7820     0268  00D2               	movwf	??___fldiv
  7821     0269  0852               	movf	??___fldiv,w
  7822     026A  04D1               	iorwf	___fldiv@b+3,f
  7823     026B                     l2454:
  7824     026B  0851               	movf	___fldiv@b+3,w
  7825     026C  00CD               	movwf	?___fldiv+3
  7826     026D  0850               	movf	___fldiv@b+2,w
  7827     026E  00CC               	movwf	?___fldiv+2
  7828     026F  084F               	movf	___fldiv@b+1,w
  7829     0270  00CB               	movwf	?___fldiv+1
  7830     0271  084E               	movf	___fldiv@b,w
  7831     0272  00CA               	movwf	?___fldiv
  7832     0273  2BAB               	goto	l1049
  7833     0274                     l2458:
  7834     0274  0862               	movf	___fldiv@bexp,w
  7835     0275  1D03               	btfss	3,2
  7836     0276  2A78               	goto	u2121
  7837     0277  2A79               	goto	u2120
  7838     0278                     u2121:
  7839     0278  2A82               	goto	l2464
  7840     0279                     u2120:
  7841     0279                     l2460:
  7842     0279  3000               	movlw	0
  7843     027A  00CD               	movwf	?___fldiv+3
  7844     027B  3000               	movlw	0
  7845     027C  00CC               	movwf	?___fldiv+2
  7846     027D  3000               	movlw	0
  7847     027E  00CB               	movwf	?___fldiv+1
  7848     027F  3000               	movlw	0
  7849     0280  00CA               	movwf	?___fldiv
  7850     0281  2BAB               	goto	l1049
  7851     0282                     l2464:
  7852     0282  0862               	movf	___fldiv@bexp,w
  7853     0283  00D2               	movwf	??___fldiv
  7854     0284  01D3               	clrf	??___fldiv+1
  7855     0285  0853               	movf	??___fldiv+1,w
  7856     0286  00D5               	movwf	??___fldiv+3
  7857     0287  0863               	movf	___fldiv@aexp,w
  7858     0288  0252               	subwf	??___fldiv,w
  7859     0289  00D4               	movwf	??___fldiv+2
  7860     028A  1C03               	skipc
  7861     028B  03D5               	decf	??___fldiv+3,f
  7862     028C  0854               	movf	??___fldiv+2,w
  7863     028D  3E7F               	addlw	127
  7864     028E  00DC               	movwf	___fldiv@new_exp
  7865     028F  3000               	movlw	0
  7866     0290  3D55               	addwfc	??___fldiv+3,w
  7867     0291  00DD               	movwf	___fldiv@new_exp+1
  7868     0292                     l2466:
  7869     0292  0851               	movf	___fldiv@b+3,w
  7870     0293  00DA               	movwf	___fldiv@rem+3
  7871     0294  0850               	movf	___fldiv@b+2,w
  7872     0295  00D9               	movwf	___fldiv@rem+2
  7873     0296  084F               	movf	___fldiv@b+1,w
  7874     0297  00D8               	movwf	___fldiv@rem+1
  7875     0298  084E               	movf	___fldiv@b,w
  7876     0299  00D7               	movwf	___fldiv@rem
  7877     029A                     l2468:
  7878     029A  3000               	movlw	0
  7879     029B  00D1               	movwf	___fldiv@b+3
  7880     029C  3000               	movlw	0
  7881     029D  00D0               	movwf	___fldiv@b+2
  7882     029E  3000               	movlw	0
  7883     029F  00CF               	movwf	___fldiv@b+1
  7884     02A0  3000               	movlw	0
  7885     02A1  00CE               	movwf	___fldiv@b
  7886     02A2                     l2470:
  7887     02A2  3000               	movlw	0
  7888     02A3  00E1               	movwf	___fldiv@grs+3
  7889     02A4  3000               	movlw	0
  7890     02A5  00E0               	movwf	___fldiv@grs+2
  7891     02A6  3000               	movlw	0
  7892     02A7  00DF               	movwf	___fldiv@grs+1
  7893     02A8  3000               	movlw	0
  7894     02A9  00DE               	movwf	___fldiv@grs
  7895     02AA                     l2472:
  7896     02AA  01E3               	clrf	___fldiv@aexp
  7897     02AB  2AEA               	goto	l2492
  7898     02AC                     l2474:
  7899     02AC  0863               	movf	___fldiv@aexp,w
  7900     02AD  1903               	btfsc	3,2
  7901     02AE  2AB0               	goto	u2131
  7902     02AF  2AB1               	goto	u2130
  7903     02B0                     u2131:
  7904     02B0  2ACB               	goto	l2484
  7905     02B1                     u2130:
  7906     02B1                     l2476:
  7907     02B1  3001               	movlw	1
  7908     02B2                     u2145:
  7909     02B2  35D7               	lslf	___fldiv@rem,f
  7910     02B3  0DD8               	rlf	___fldiv@rem+1,f
  7911     02B4  0DD9               	rlf	___fldiv@rem+2,f
  7912     02B5  0DDA               	rlf	___fldiv@rem+3,f
  7913     02B6  0B89               	decfsz	9,f
  7914     02B7  2AB2               	goto	u2145
  7915     02B8  3001               	movlw	1
  7916     02B9                     u2155:
  7917     02B9  35CE               	lslf	___fldiv@b,f
  7918     02BA  0DCF               	rlf	___fldiv@b+1,f
  7919     02BB  0DD0               	rlf	___fldiv@b+2,f
  7920     02BC  0DD1               	rlf	___fldiv@b+3,f
  7921     02BD  0B89               	decfsz	9,f
  7922     02BE  2AB9               	goto	u2155
  7923     02BF                     l2478:
  7924     02BF  1FE1               	btfss	___fldiv@grs+3,7
  7925     02C0  2AC2               	goto	u2161
  7926     02C1  2AC3               	goto	u2160
  7927     02C2                     u2161:
  7928     02C2  2AC4               	goto	l2482
  7929     02C3                     u2160:
  7930     02C3                     l2480:
  7931     02C3  144E               	bsf	___fldiv@b,0
  7932     02C4                     l2482:
  7933     02C4  3001               	movlw	1
  7934     02C5                     u2175:
  7935     02C5  35DE               	lslf	___fldiv@grs,f
  7936     02C6  0DDF               	rlf	___fldiv@grs+1,f
  7937     02C7  0DE0               	rlf	___fldiv@grs+2,f
  7938     02C8  0DE1               	rlf	___fldiv@grs+3,f
  7939     02C9  0B89               	decfsz	9,f
  7940     02CA  2AC5               	goto	u2175
  7941     02CB                     l2484:
  7942     02CB  084D               	movf	___fldiv@a+3,w
  7943     02CC  025A               	subwf	___fldiv@rem+3,w
  7944     02CD  1D03               	skipz
  7945     02CE  2AD9               	goto	u2185
  7946     02CF  084C               	movf	___fldiv@a+2,w
  7947     02D0  0259               	subwf	___fldiv@rem+2,w
  7948     02D1  1D03               	skipz
  7949     02D2  2AD9               	goto	u2185
  7950     02D3  084B               	movf	___fldiv@a+1,w
  7951     02D4  0258               	subwf	___fldiv@rem+1,w
  7952     02D5  1D03               	skipz
  7953     02D6  2AD9               	goto	u2185
  7954     02D7  084A               	movf	___fldiv@a,w
  7955     02D8  0257               	subwf	___fldiv@rem,w
  7956     02D9                     u2185:
  7957     02D9  1C03               	skipc
  7958     02DA  2ADC               	goto	u2181
  7959     02DB  2ADD               	goto	u2180
  7960     02DC                     u2181:
  7961     02DC  2AE6               	goto	l2490
  7962     02DD                     u2180:
  7963     02DD                     l2486:
  7964     02DD  1761               	bsf	___fldiv@grs+3,6
  7965     02DE                     l2488:
  7966     02DE  084A               	movf	___fldiv@a,w
  7967     02DF  02D7               	subwf	___fldiv@rem,f
  7968     02E0  084B               	movf	___fldiv@a+1,w
  7969     02E1  3BD8               	subwfb	___fldiv@rem+1,f
  7970     02E2  084C               	movf	___fldiv@a+2,w
  7971     02E3  3BD9               	subwfb	___fldiv@rem+2,f
  7972     02E4  084D               	movf	___fldiv@a+3,w
  7973     02E5  3BDA               	subwfb	___fldiv@rem+3,f
  7974     02E6                     l2490:
  7975     02E6  3001               	movlw	1
  7976     02E7  00D2               	movwf	??___fldiv
  7977     02E8  0852               	movf	??___fldiv,w
  7978     02E9  07E3               	addwf	___fldiv@aexp,f
  7979     02EA                     l2492:
  7980     02EA  301A               	movlw	26
  7981     02EB  0263               	subwf	___fldiv@aexp,w
  7982     02EC  1C03               	skipc
  7983     02ED  2AEF               	goto	u2191
  7984     02EE  2AF0               	goto	u2190
  7985     02EF                     u2191:
  7986     02EF  2AAC               	goto	l2474
  7987     02F0                     u2190:
  7988     02F0                     l2494:
  7989     02F0  085A               	movf	___fldiv@rem+3,w
  7990     02F1  0459               	iorwf	___fldiv@rem+2,w
  7991     02F2  0458               	iorwf	___fldiv@rem+1,w
  7992     02F3  0457               	iorwf	___fldiv@rem,w
  7993     02F4  1903               	skipnz
  7994     02F5  2AF7               	goto	u2201
  7995     02F6  2AF8               	goto	u2200
  7996     02F7                     u2201:
  7997     02F7  2B11               	goto	l2508
  7998     02F8                     u2200:
  7999     02F8                     l2496:
  8000     02F8  145E               	bsf	___fldiv@grs,0
  8001     02F9  2B11               	goto	l2508
  8002     02FA                     l2498:
  8003     02FA  3001               	movlw	1
  8004     02FB                     u2215:
  8005     02FB  35CE               	lslf	___fldiv@b,f
  8006     02FC  0DCF               	rlf	___fldiv@b+1,f
  8007     02FD  0DD0               	rlf	___fldiv@b+2,f
  8008     02FE  0DD1               	rlf	___fldiv@b+3,f
  8009     02FF  0B89               	decfsz	9,f
  8010     0300  2AFB               	goto	u2215
  8011     0301                     l2500:
  8012     0301  1FE1               	btfss	___fldiv@grs+3,7
  8013     0302  2B04               	goto	u2221
  8014     0303  2B05               	goto	u2220
  8015     0304                     u2221:
  8016     0304  2B06               	goto	l2504
  8017     0305                     u2220:
  8018     0305                     l2502:
  8019     0305  144E               	bsf	___fldiv@b,0
  8020     0306                     l2504:
  8021     0306  3001               	movlw	1
  8022     0307                     u2235:
  8023     0307  35DE               	lslf	___fldiv@grs,f
  8024     0308  0DDF               	rlf	___fldiv@grs+1,f
  8025     0309  0DE0               	rlf	___fldiv@grs+2,f
  8026     030A  0DE1               	rlf	___fldiv@grs+3,f
  8027     030B  0B89               	decfsz	9,f
  8028     030C  2B07               	goto	u2235
  8029     030D                     l2506:
  8030     030D  30FF               	movlw	255
  8031     030E  07DC               	addwf	___fldiv@new_exp,f
  8032     030F  30FF               	movlw	255
  8033     0310  3DDD               	addwfc	___fldiv@new_exp+1,f
  8034     0311                     l2508:
  8035     0311  1FD0               	btfss	___fldiv@b+2,7
  8036     0312  2B14               	goto	u2241
  8037     0313  2B15               	goto	u2240
  8038     0314                     u2241:
  8039     0314  2AFA               	goto	l2498
  8040     0315                     u2240:
  8041     0315                     l2510:
  8042     0315  01E3               	clrf	___fldiv@aexp
  8043     0316                     l2512:
  8044     0316  1FE1               	btfss	___fldiv@grs+3,7
  8045     0317  2B19               	goto	u2251
  8046     0318  2B1A               	goto	u2250
  8047     0319                     u2251:
  8048     0319  2B36               	goto	l2520
  8049     031A                     u2250:
  8050     031A                     l2514:
  8051     031A  30FF               	movlw	255
  8052     031B  055E               	andwf	___fldiv@grs,w
  8053     031C  00D2               	movwf	??___fldiv
  8054     031D  30FF               	movlw	255
  8055     031E  055F               	andwf	___fldiv@grs+1,w
  8056     031F  00D3               	movwf	??___fldiv+1
  8057     0320  30FF               	movlw	255
  8058     0321  0560               	andwf	___fldiv@grs+2,w
  8059     0322  00D4               	movwf	??___fldiv+2
  8060     0323  307F               	movlw	127
  8061     0324  0561               	andwf	___fldiv@grs+3,w
  8062     0325  00D5               	movwf	??___fldiv+3
  8063     0326  0855               	movf	??___fldiv+3,w
  8064     0327  0454               	iorwf	??___fldiv+2,w
  8065     0328  0453               	iorwf	??___fldiv+1,w
  8066     0329  0452               	iorwf	??___fldiv,w
  8067     032A  1903               	skipnz
  8068     032B  2B2D               	goto	u2261
  8069     032C  2B2E               	goto	u2260
  8070     032D                     u2261:
  8071     032D  2B31               	goto	l1063
  8072     032E                     u2260:
  8073     032E                     l2516:
  8074     032E  01E3               	clrf	___fldiv@aexp
  8075     032F  0AE3               	incf	___fldiv@aexp,f
  8076     0330  2B36               	goto	l2520
  8077     0331                     l1063:
  8078     0331  1C4E               	btfss	___fldiv@b,0
  8079     0332  2B34               	goto	u2271
  8080     0333  2B35               	goto	u2270
  8081     0334                     u2271:
  8082     0334  2B36               	goto	l2520
  8083     0335                     u2270:
  8084     0335  2B2E               	goto	l2516
  8085     0336                     l2520:
  8086     0336  0863               	movf	___fldiv@aexp,w
  8087     0337  1903               	btfsc	3,2
  8088     0338  2B3A               	goto	u2281
  8089     0339  2B3B               	goto	u2280
  8090     033A                     u2281:
  8091     033A  2B63               	goto	l2530
  8092     033B                     u2280:
  8093     033B                     l2522:
  8094     033B  3001               	movlw	1
  8095     033C  07CE               	addwf	___fldiv@b,f
  8096     033D  3000               	movlw	0
  8097     033E  3DCF               	addwfc	___fldiv@b+1,f
  8098     033F  3000               	movlw	0
  8099     0340  3DD0               	addwfc	___fldiv@b+2,f
  8100     0341  3000               	movlw	0
  8101     0342  3DD1               	addwfc	___fldiv@b+3,f
  8102     0343                     l2524:
  8103     0343  1C51               	btfss	___fldiv@b+3,0
  8104     0344  2B46               	goto	u2291
  8105     0345  2B47               	goto	u2290
  8106     0346                     u2291:
  8107     0346  2B63               	goto	l2530
  8108     0347                     u2290:
  8109     0347                     l2526:
  8110     0347  084E               	movf	___fldiv@b,w
  8111     0348  00D2               	movwf	??___fldiv
  8112     0349  084F               	movf	___fldiv@b+1,w
  8113     034A  00D3               	movwf	??___fldiv+1
  8114     034B  0850               	movf	___fldiv@b+2,w
  8115     034C  00D4               	movwf	??___fldiv+2
  8116     034D  0851               	movf	___fldiv@b+3,w
  8117     034E  00D5               	movwf	??___fldiv+3
  8118     034F  3001               	movlw	1
  8119     0350  00D6               	movwf	??___fldiv+4
  8120     0351                     u2305:
  8121     0351  37D5               	asrf	??___fldiv+3,f
  8122     0352  0CD4               	rrf	??___fldiv+2,f
  8123     0353  0CD3               	rrf	??___fldiv+1,f
  8124     0354  0CD2               	rrf	??___fldiv,f
  8125     0355                     u2300:
  8126     0355  0BD6               	decfsz	??___fldiv+4,f
  8127     0356  2B51               	goto	u2305
  8128     0357  0855               	movf	??___fldiv+3,w
  8129     0358  00D1               	movwf	___fldiv@b+3
  8130     0359  0854               	movf	??___fldiv+2,w
  8131     035A  00D0               	movwf	___fldiv@b+2
  8132     035B  0853               	movf	??___fldiv+1,w
  8133     035C  00CF               	movwf	___fldiv@b+1
  8134     035D  0852               	movf	??___fldiv,w
  8135     035E  00CE               	movwf	___fldiv@b
  8136     035F                     l2528:
  8137     035F  3001               	movlw	1
  8138     0360  07DC               	addwf	___fldiv@new_exp,f
  8139     0361  3000               	movlw	0
  8140     0362  3DDD               	addwfc	___fldiv@new_exp+1,f
  8141     0363                     l2530:
  8142     0363  085D               	movf	___fldiv@new_exp+1,w
  8143     0364  3A80               	xorlw	128
  8144     0365  00D2               	movwf	??___fldiv
  8145     0366  3080               	movlw	128
  8146     0367  0252               	subwf	??___fldiv,w
  8147     0368  1D03               	skipz
  8148     0369  2B6C               	goto	u2315
  8149     036A  30FF               	movlw	255
  8150     036B  025C               	subwf	___fldiv@new_exp,w
  8151     036C                     u2315:
  8152     036C  1C03               	skipc
  8153     036D  2B6F               	goto	u2311
  8154     036E  2B70               	goto	u2310
  8155     036F                     u2311:
  8156     036F  2B7D               	goto	l1068
  8157     0370                     u2310:
  8158     0370                     l2532:
  8159     0370  30FF               	movlw	255
  8160     0371  0020               	movlb	0	; select bank0
  8161     0372  00DC               	movwf	___fldiv@new_exp
  8162     0373  3000               	movlw	0
  8163     0374  00DD               	movwf	___fldiv@new_exp+1
  8164     0375  3000               	movlw	0
  8165     0376  00D1               	movwf	___fldiv@b+3
  8166     0377  3000               	movlw	0
  8167     0378  00D0               	movwf	___fldiv@b+2
  8168     0379  3000               	movlw	0
  8169     037A  00CF               	movwf	___fldiv@b+1
  8170     037B  3000               	movlw	0
  8171     037C  00CE               	movwf	___fldiv@b
  8172     037D                     l1068:
  8173     037D  0020               	movlb	0	; select bank0
  8174     037E  085D               	movf	___fldiv@new_exp+1,w
  8175     037F  3A80               	xorlw	128
  8176     0380  00D2               	movwf	??___fldiv
  8177     0381  3080               	movlw	128
  8178     0382  0252               	subwf	??___fldiv,w
  8179     0383  1D03               	skipz
  8180     0384  2B87               	goto	u2325
  8181     0385  3001               	movlw	1
  8182     0386  025C               	subwf	___fldiv@new_exp,w
  8183     0387                     u2325:
  8184     0387  1803               	skipnc
  8185     0388  2B8A               	goto	u2321
  8186     0389  2B8B               	goto	u2320
  8187     038A                     u2321:
  8188     038A  2B97               	goto	l1069
  8189     038B                     u2320:
  8190     038B                     l2534:
  8191     038B  0020               	movlb	0	; select bank0
  8192     038C  01DC               	clrf	___fldiv@new_exp
  8193     038D  01DD               	clrf	___fldiv@new_exp+1
  8194     038E                     l2536:
  8195     038E  3000               	movlw	0
  8196     038F  00D1               	movwf	___fldiv@b+3
  8197     0390  3000               	movlw	0
  8198     0391  00D0               	movwf	___fldiv@b+2
  8199     0392  3000               	movlw	0
  8200     0393  00CF               	movwf	___fldiv@b+1
  8201     0394  3000               	movlw	0
  8202     0395  00CE               	movwf	___fldiv@b
  8203     0396                     l2538:
  8204     0396  01DB               	clrf	___fldiv@sign
  8205     0397                     l1069:
  8206     0397  0020               	movlb	0	; select bank0
  8207     0398  085C               	movf	___fldiv@new_exp,w
  8208     0399  00E2               	movwf	___fldiv@bexp
  8209     039A                     l2540:
  8210     039A  1C62               	btfss	___fldiv@bexp,0
  8211     039B  2B9D               	goto	u2331
  8212     039C  2B9E               	goto	u2330
  8213     039D                     u2331:
  8214     039D  2BA0               	goto	l2544
  8215     039E                     u2330:
  8216     039E                     l2542:
  8217     039E  17D0               	bsf	___fldiv@b+2,7
  8218     039F  2BA4               	goto	l1071
  8219     03A0                     l2544:
  8220     03A0  307F               	movlw	127
  8221     03A1  00D2               	movwf	??___fldiv
  8222     03A2  0852               	movf	??___fldiv,w
  8223     03A3  05D0               	andwf	___fldiv@b+2,f
  8224     03A4                     l1071:
  8225     03A4  3662               	lsrf	___fldiv@bexp,w
  8226     03A5  00D1               	movwf	___fldiv@b+3
  8227     03A6  085B               	movf	___fldiv@sign,w
  8228     03A7  00D2               	movwf	??___fldiv
  8229     03A8  0852               	movf	??___fldiv,w
  8230     03A9  04D1               	iorwf	___fldiv@b+3,f
  8231     03AA  2A6B               	goto	l2454
  8232     03AB                     l1049:
  8233     03AB  0008               	return
  8234     03AC                     __end_of___fldiv:
  8235     007E                     btemp	set	126	;btemp
  8236     007E                     wtemp0	set	126
  8237                           
  8238                           	psect	idloc
  8239                           
  8240                           ;Config register IDLOC0 @ 0x8000
  8241                           ;	unspecified, using default values
  8242     8000                     	org	32768
  8243     8000  3FFF               	dw	16383
  8244                           
  8245                           ;Config register IDLOC1 @ 0x8001
  8246                           ;	unspecified, using default values
  8247     8001                     	org	32769
  8248     8001  3FFF               	dw	16383
  8249                           
  8250                           ;Config register IDLOC2 @ 0x8002
  8251                           ;	unspecified, using default values
  8252     8002                     	org	32770
  8253     8002  3FFF               	dw	16383
  8254                           
  8255                           ;Config register IDLOC3 @ 0x8003
  8256                           ;	unspecified, using default values
  8257     8003                     	org	32771
  8258     8003  3FFF               	dw	16383
  8259                           
  8260                           	psect	config
  8261                           
  8262                           ;Config register CONFIG1 @ 0x8007
  8263                           ;	Oscillator Selection
  8264                           ;	FOSC = INTOSC, INTOSC oscillator: I/O function on CLKIN pin
  8265                           ;	Watchdog Timer Enable
  8266                           ;	WDTE = OFF, WDT disabled
  8267                           ;	Power-up Timer Enable
  8268                           ;	PWRTE = OFF, PWRT disabled
  8269                           ;	MCLR Pin Function Select
  8270                           ;	MCLRE = ON, MCLR/VPP pin function is MCLR
  8271                           ;	Flash Program Memory Code Protection
  8272                           ;	CP = OFF, Program memory code protection is disabled
  8273                           ;	Data Memory Code Protection
  8274                           ;	CPD = OFF, Data memory code protection is disabled
  8275                           ;	Brown-out Reset Enable
  8276                           ;	BOREN = ON, Brown-out Reset enabled
  8277                           ;	Clock Out Enable
  8278                           ;	CLKOUTEN = OFF, CLKOUT function is disabled. I/O or oscillator function on the CLKOUT 
      +                          pin
  8279                           ;	Internal/External Switchover
  8280                           ;	IESO = ON, Internal/External Switchover mode is enabled
  8281                           ;	Fail-Safe Clock Monitor Enable
  8282                           ;	FCMEN = ON, Fail-Safe Clock Monitor is enabled
  8283     8007                     	org	32775
  8284     8007  3FE4               	dw	16356
  8285                           
  8286                           ;Config register CONFIG2 @ 0x8008
  8287                           ;	Flash Memory Self-Write Protection
  8288                           ;	WRT = OFF, Write protection off
  8289                           ;	PLL Enable
  8290                           ;	PLLEN = OFF, 4x PLL disabled
  8291                           ;	Stack Overflow/Underflow Reset Enable
  8292                           ;	STVREN = ON, Stack Overflow or Underflow will cause a Reset
  8293                           ;	Brown-out Reset Voltage Selection
  8294                           ;	BORV = LO, Brown-out Reset Voltage (Vbor), low trip point selected.
  8295                           ;	Low-Voltage Programming Enable
  8296                           ;	LVP = ON, Low-voltage programming enabled
  8297     8008                     	org	32776
  8298     8008  3EFF               	dw	16127

Data Sizes:
    Strings     0
    Constant    0
    Data        0
    BSS         9
    Persistent  38
    Stack       0

Auto Spaces:
    Space          Size  Autos    Used
    COMMON           14     14      14
    BANK0            80     80      80
    BANK1            80     37      52
    BANK2            80      0       0
    BANK3            80      0       0
    BANK4            48      0       0

Pointer List with Targets:

    ADC_InterruptHandler	PTR FTN()void  size(2) Largest target is 1
		 -> Absolute function(), 

    enviarsiguiente_Dato@ser	PTR struct Sr_Serial size(1) Largest target is 10
		 -> main@miserial(BANK1[10]), 

    llenar_registros_del_Serial@ser	PTR struct Sr_Serial size(1) Largest target is 10
		 -> main@miserial(BANK1[10]), 

    tengodatos_PorEnviar@ser	PTR struct Sr_Serial size(1) Largest target is 10
		 -> main@miserial(BANK1[10]), 

    inicializar_nuestroserial@ser	PTR struct Sr_Serial size(1) Largest target is 10
		 -> main@miserial(BANK1[10]), 

    mostrar_Display@dis	PTR struct Ds_Display size(1) Largest target is 5
		 -> main@miDisplay(BANK1[5]), 

    ADC2Display@dis	PTR struct Ds_Display size(1) Largest target is 5
		 -> main@miDisplay(BANK1[5]), 

    inicializar_nuestro_Display@dis	PTR struct Ds_Display size(1) Largest target is 5
		 -> main@miDisplay(BANK1[5]), 

    Tm_Baje_periodico@ctp	PTR struct Tm_Periodico size(1) Largest target is 7
		 -> main@timer_ADC(BANK1[7]), 

    Tm_Hubo_periodico@ctp	PTR struct Tm_Periodico size(1) Largest target is 7
		 -> main@timer_ADC(BANK1[7]), 

    Tm_Procese_tiempo@ctp	PTR struct Tm_Periodico size(1) Largest target is 7
		 -> main@timer_ADC(BANK1[7]), 

    Tm_Inicie_periodico@ctp	PTR struct Tm_Periodico size(1) Largest target is 7
		 -> main@timer_ADC(BANK1[7]), 

    EUSART_SetErrorHandler@interruptHandler	PTR FTN()void  size(2) Largest target is 1
		 -> EUSART_DefaultErrorHandler(), 

    EUSART_ErrorHandler	PTR FTN()void  size(2) Largest target is 1
		 -> Absolute function(), EUSART_DefaultErrorHandler(), 

    EUSART_SetOverrunErrorHandler@interruptHandler	PTR FTN()void  size(2) Largest target is 1
		 -> EUSART_DefaultOverrunErrorHandler(), 

    EUSART_OverrunErrorHandler	PTR FTN()void  size(2) Largest target is 1
		 -> Absolute function(), EUSART_DefaultOverrunErrorHandler(), 

    EUSART_SetFramingErrorHandler@interruptHandler	PTR FTN()void  size(2) Largest target is 1
		 -> EUSART_DefaultFramingErrorHandler(), 

    EUSART_FramingErrorHandler	PTR FTN()void  size(2) Largest target is 1
		 -> Absolute function(), EUSART_DefaultFramingErrorHandler(), 


Critical Paths under _main in COMMON

    _mostrar_Display->_Prender_seg
    _enviarsiguiente_Dato->_EUSART_Write
    _EUSART_Initialize->_EUSART_SetErrorHandler
    _EUSART_Initialize->_EUSART_SetFramingErrorHandler
    _EUSART_Initialize->_EUSART_SetOverrunErrorHandler
    _ADC2Display->___xxtofl
    ___fltol->___xxtofl
    ___flsub->___xxtofl
    ___flmul->___xxtofl
    ___fldiv->___xxtofl

Critical Paths under _main in BANK0

    _main->_ADC2Display
    _ADC2Display->___fltol
    ___fltol->___fldiv
    ___flsub->___fladd
    ___flmul->___flsub
    ___fldiv->___flmul

Critical Paths under _main in BANK1

    _main->_ADC2Display

Critical Paths under _main in BANK2

    None.

Critical Paths under _main in BANK3

    None.

Critical Paths under _main in BANK4

    None.

Call Graph Tables:

 ---------------------------------------------------------------------------------
 (Depth) Function   	        Calls       Base Space   Used Autos Params    Refs
 ---------------------------------------------------------------------------------
 (0) _main                                                23    23      0   11388
                                             14 BANK1     23    23      0
                        _ADC2Display
            _ADC_GetConversionResult
               _ADC_IsConversionDone
                _ADC_StartConversion
                 _EUSART_is_tx_ready
                  _SYSTEM_Initialize
            _TMR2_HasOverflowOccured
                  _Tm_Baje_periodico
                  _Tm_Hubo_periodico
                _Tm_Inicie_periodico
                  _Tm_Procese_tiempo
               _enviarsiguiente_Dato
        _inicializar_nuestro_Display
          _inicializar_nuestroserial
        _llenar_registros_del_Serial
                    _mostrar_Display
               _tengodatos_PorEnviar
 ---------------------------------------------------------------------------------
 (1) _tengodatos_PorEnviar                                 1     1      0      55
                                              0 COMMON     1     1      0
 ---------------------------------------------------------------------------------
 (1) _mostrar_Display                                      5     3      2     604
                                              2 COMMON     5     3      2
                        _Prender_seg
 ---------------------------------------------------------------------------------
 (2) _Prender_seg                                          2     0      2     250
                                              0 COMMON     2     0      2
 ---------------------------------------------------------------------------------
 (1) _llenar_registros_del_Serial                          4     1      3     613
                                              0 COMMON     4     1      3
 ---------------------------------------------------------------------------------
 (1) _inicializar_nuestroserial                            2     2      0     143
                                              0 COMMON     2     2      0
 ---------------------------------------------------------------------------------
 (1) _inicializar_nuestro_Display                          1     1      0     121
                                              0 COMMON     1     1      0
 ---------------------------------------------------------------------------------
 (1) _enviarsiguiente_Dato                                 2     2      0     121
                                              1 COMMON     2     2      0
                       _EUSART_Write
 ---------------------------------------------------------------------------------
 (2) _EUSART_Write                                         1     1      0      22
                                              0 COMMON     1     1      0
 ---------------------------------------------------------------------------------
 (1) _Tm_Procese_tiempo                                    5     5      0     231
                                              0 COMMON     5     5      0
 ---------------------------------------------------------------------------------
 (1) _Tm_Inicie_periodico                                  4     2      2     219
                                              0 COMMON     4     2      2
 ---------------------------------------------------------------------------------
 (1) _Tm_Hubo_periodico                                    1     1      0      55
                                              0 COMMON     1     1      0
 ---------------------------------------------------------------------------------
 (1) _Tm_Baje_periodico                                    2     2      0      55
                                              0 COMMON     2     2      0
 ---------------------------------------------------------------------------------
 (1) _TMR2_HasOverflowOccured                              1     1      0      45
                                              0 COMMON     1     1      0
 ---------------------------------------------------------------------------------
 (1) _SYSTEM_Initialize                                    0     0      0     294
                     _ADC_Initialize
                  _EUSART_Initialize
                     _FVR_Initialize
              _OSCILLATOR_Initialize
             _PIN_MANAGER_Initialize
                    _TMR2_Initialize
                     _WDT_Initialize
 ---------------------------------------------------------------------------------
 (2) _WDT_Initialize                                       0     0      0       0
 ---------------------------------------------------------------------------------
 (2) _TMR2_Initialize                                      0     0      0       0
 ---------------------------------------------------------------------------------
 (2) _PIN_MANAGER_Initialize                               0     0      0       0
 ---------------------------------------------------------------------------------
 (2) _OSCILLATOR_Initialize                                0     0      0       0
 ---------------------------------------------------------------------------------
 (2) _FVR_Initialize                                       0     0      0       0
 ---------------------------------------------------------------------------------
 (2) _EUSART_Initialize                                    0     0      0     294
             _EUSART_SetErrorHandler
      _EUSART_SetFramingErrorHandler
      _EUSART_SetOverrunErrorHandler
 ---------------------------------------------------------------------------------
 (3) _EUSART_SetOverrunErrorHandler                        2     0      2      98
                                              0 COMMON     2     0      2
 ---------------------------------------------------------------------------------
 (3) _EUSART_SetFramingErrorHandler                        2     0      2      98
                                              0 COMMON     2     0      2
 ---------------------------------------------------------------------------------
 (3) _EUSART_SetErrorHandler                               2     0      2      98
                                              0 COMMON     2     0      2
 ---------------------------------------------------------------------------------
 (2) _ADC_Initialize                                       0     0      0       0
 ---------------------------------------------------------------------------------
 (1) _EUSART_is_tx_ready                                   1     1      0      24
                                              0 COMMON     1     1      0
 ---------------------------------------------------------------------------------
 (1) _ADC_StartConversion                                  0     0      0       0
 ---------------------------------------------------------------------------------
 (1) _ADC_IsConversionDone                                 0     0      0       0
 ---------------------------------------------------------------------------------
 (1) _ADC_GetConversionResult                              2     0      2       0
                                              0 COMMON     2     0      2
 ---------------------------------------------------------------------------------
 (1) _ADC2Display                                         16    14      2    8374
                                             78 BANK0      2     0      2
                                              0 BANK1     14    14      0
                            ___fldiv
                            ___flmul
                            ___flsub
                            ___fltol
                           ___xxtofl
 ---------------------------------------------------------------------------------
 (2) ___xxtofl                                            14    10      4     626
                                              0 COMMON    14    10      4
 ---------------------------------------------------------------------------------
 (2) ___fltol                                             10     6      4     457
                                             68 BANK0     10     6      4
                            ___fldiv (ARG)
                            ___flmul (ARG)
                            ___flsub (ARG)
                           ___xxtofl (ARG)
 ---------------------------------------------------------------------------------
 (2) ___flsub                                              8     0      8    2637
                                              8 BANK0      8     0      8
                            ___fladd
                           ___xxtofl (ARG)
 ---------------------------------------------------------------------------------
 (3) ___fladd                                             20    12      8    2136
                                              0 COMMON    12     4      8
                                              0 BANK0      8     8      0
 ---------------------------------------------------------------------------------
 (2) ___flmul                                             26    18      8    2721
                                             16 BANK0     26    18      8
                          __Umul8_16
                            ___flsub (ARG)
                           ___xxtofl (ARG)
 ---------------------------------------------------------------------------------
 (3) __Umul8_16                                            9     7      2     799
                                              0 COMMON     9     7      2
 ---------------------------------------------------------------------------------
 (2) ___fldiv                                             26    18      8    1425
                                             42 BANK0     26    18      8
                            ___flmul (ARG)
                            ___flsub (ARG)
                           ___xxtofl (ARG)
 ---------------------------------------------------------------------------------
 Estimated maximum stack depth 3
 ---------------------------------------------------------------------------------

 Call Graph Graphs:

 _main (ROOT)
   _ADC2Display
     ___fldiv
       ___flmul (ARG)
         __Umul8_16
         ___flsub (ARG)
           ___fladd
           ___xxtofl (ARG)
         ___xxtofl (ARG)
       ___flsub (ARG)
       ___xxtofl (ARG)
     ___flmul
     ___flsub
     ___fltol
       ___fldiv (ARG)
       ___flmul (ARG)
       ___flsub (ARG)
       ___xxtofl (ARG)
     ___xxtofl
   _ADC_GetConversionResult
   _ADC_IsConversionDone
   _ADC_StartConversion
   _EUSART_is_tx_ready
   _SYSTEM_Initialize
     _ADC_Initialize
     _EUSART_Initialize
       _EUSART_SetErrorHandler
       _EUSART_SetFramingErrorHandler
       _EUSART_SetOverrunErrorHandler
     _FVR_Initialize
     _OSCILLATOR_Initialize
     _PIN_MANAGER_Initialize
     _TMR2_Initialize
     _WDT_Initialize
   _TMR2_HasOverflowOccured
   _Tm_Baje_periodico
   _Tm_Hubo_periodico
   _Tm_Inicie_periodico
   _Tm_Procese_tiempo
   _enviarsiguiente_Dato
     _EUSART_Write
   _inicializar_nuestro_Display
   _inicializar_nuestroserial
   _llenar_registros_del_Serial
   _mostrar_Display
     _Prender_seg
   _tengodatos_PorEnviar

 Address spaces:
Name               Size   Autos  Total    Cost      Usage
BIGRAM             170      0       0       0        0.0%
EEDATA             100      0       0       0        0.0%
NULL                 0      0       0       0        0.0%
CODE                 0      0       0       0        0.0%
BITCOMMON            E      0       0       1        0.0%
BITSFR0              0      0       0       1        0.0%
SFR0                 0      0       0       1        0.0%
COMMON               E      E       E       2      100.0%
BITSFR1              0      0       0       2        0.0%
SFR1                 0      0       0       2        0.0%
BITSFR2              0      0       0       3        0.0%
SFR2                 0      0       0       3        0.0%
STACK                0      0       0       3        0.0%
BITSFR3              0      0       0       4        0.0%
SFR3                 0      0       0       4        0.0%
ABS                  0      0      92       4        0.0%
BITBANK0            50      0       0       5        0.0%
BITSFR4              0      0       0       5        0.0%
SFR4                 0      0       0       5        0.0%
BANK0               50     50      50       6      100.0%
BITSFR5              0      0       0       6        0.0%
SFR5                 0      0       0       6        0.0%
BITBANK1            50      0       0       7        0.0%
BITSFR6              0      0       0       7        0.0%
SFR6                 0      0       0       7        0.0%
BANK1               50     25      34       8       65.0%
BITSFR7              0      0       0       8        0.0%
SFR7                 0      0       0       8        0.0%
BITBANK2            50      0       0       9        0.0%
BITSFR8              0      0       0       9        0.0%
SFR8                 0      0       0       9        0.0%
BANK2               50      0       0      10        0.0%
BITSFR9              0      0       0      10        0.0%
SFR9                 0      0       0      10        0.0%
BITBANK3            50      0       0      11        0.0%
BITSFR10             0      0       0      11        0.0%
SFR10                0      0       0      11        0.0%
BANK3               50      0       0      12        0.0%
BITSFR11             0      0       0      12        0.0%
SFR11                0      0       0      12        0.0%
BITBANK4            30      0       0      13        0.0%
BITSFR12             0      0       0      13        0.0%
SFR12                0      0       0      13        0.0%
BANK4               30      0       0      14        0.0%
BITSFR13             0      0       0      14        0.0%
SFR13                0      0       0      14        0.0%
BITSFR14             0      0       0      15        0.0%
SFR14                0      0       0      15        0.0%
DATA                 0      0      92      15        0.0%
BITSFR15             0      0       0      16        0.0%
SFR15                0      0       0      16        0.0%
BITSFR16             0      0       0      17        0.0%
SFR16                0      0       0      17        0.0%
BITSFR17             0      0       0      18        0.0%
SFR17                0      0       0      18        0.0%
BITSFR18             0      0       0      19        0.0%
SFR18                0      0       0      19        0.0%
BITSFR19             0      0       0      20        0.0%
SFR19                0      0       0      20        0.0%
BITSFR20             0      0       0      21        0.0%
SFR20                0      0       0      21        0.0%
BITSFR21             0      0       0      22        0.0%
SFR21                0      0       0      22        0.0%
BITSFR22             0      0       0      23        0.0%
SFR22                0      0       0      23        0.0%
BITSFR23             0      0       0      24        0.0%
SFR23                0      0       0      24        0.0%
BITSFR24             0      0       0      25        0.0%
SFR24                0      0       0      25        0.0%
BITSFR25             0      0       0      26        0.0%
SFR25                0      0       0      26        0.0%
BITSFR26             0      0       0      27        0.0%
SFR26                0      0       0      27        0.0%
BITSFR27             0      0       0      28        0.0%
SFR27                0      0       0      28        0.0%
BITSFR28             0      0       0      29        0.0%
SFR28                0      0       0      29        0.0%
BITSFR29             0      0       0      30        0.0%
SFR29                0      0       0      30        0.0%
BITSFR30             0      0       0      31        0.0%
SFR30                0      0       0      31        0.0%
BITSFR31             0      0       0      32        0.0%
SFR31                0      0       0      32        0.0%


Microchip Technology PIC Macro Assembler V2.40 build 20220703182018 
Symbol Table                                                                                   Wed Mar 01 10:59:36 2023

                                 ___fldiv@aexp 0063                                   ___fldiv@bexp 0062  
                                 ___fldiv@sign 005B                                             l31 0BB5  
                                           l25 0C5D                                             l28 0BDB  
                                           l56 0C47                   __end_of_tengodatos_PorEnviar 0C23  
                       __end_of_FVR_Initialize 0BB2                            __Umul8_16@word_mpld 0076  
                                          l102 0CF6                                            l107 0C31  
                                          l141 0BC7                                            l126 0BFF  
                                          l144 0BCD                                            l208 0BEB  
                                          l400 0EF6                                            l129 0C07  
                                          l170 0BAD                                            l402 0EF7  
                                          l147 0BC1                                            l227 0C14  
                                          l411 0EFD                                            l164 0BE3  
                                          l404 0EF8                                            l341 0201  
                                          l173 0BD4                                            l413 0EFE  
                                          l501 0DDA                                            l430 0F08  
                                          l422 0F03                                            l350 0ED9  
                                          l335 0CD4                                            l415 0EFF  
                                          l407 0EFA                                            l511 0DFA  
                                          l503 0DDC                                            l176 0BBB  
                                          l192 0BB1                                            l432 0F09  
                                          l424 0F05                                            l352 0EDA  
                                          l520 0E19                                            l441 0F0F  
                                          l417 0F00                                            l409 0EFC  
                                          l513 0DFB                                            l505 0DDD  
                                          l282 0C93                                            l434 0F0A  
                                          l426 0F06                                            l370 0EE4  
                                          l362 0EDF                                            l354 0EDB  
                                          l346 0ED6                                            l291 0BF3  
                                          l531 0D1C                                            l443 0F10  
                                          l419 0F01                                            l523 0E54  
                                          l275 0EBD                                            l540 0C75  
                                          l460 0F1A                                            l452 0F15  
                                          l428 0F07                                            l372 0EE5  
                                          l364 0EE1                                            l356 0EDC  
                                          l348 0ED8                                            l516 0E16  
                                          l445 0F11                                            l437 0F0C  
                                          l381 0EEB                                            l509 0DF8  
                                          l294 0BFD                                            l462 0F1B  
                                          l454 0F17                                            l374 0EE6  
                                          l366 0EE2                                            l358 0EDD  
                                          l518 0E18                                            l534 0C22  
                                          l471 0F21                                            l447 0F12  
                                          l439 0F0E                                            l383 0EEC  
                                          l288 0D66                                            l528 0D12  
                                          l464 0F1C                                            l456 0F18  
                                          l392 0EF1                                            l368 0EE3  
                                          l537 0071                                            l473 0F22  
                                          l449 0F13                                            l385 0EED  
                                          l377 0EE8                                            l490 0F2C  
                                          l482 0F27                                            l458 0F19  
                                          l394 0EF3                                            l475 0F23  
                                          l467 0F1E                                            l387 0EEE  
                                          l379 0EEA                                            l492 0F2D  
                                          l484 0F29                                            l396 0EF4  
                                          l477 0F24                                            l469 0F20  
                                          l389 0EEF                                            l494 0F2E  
                                          l486 0F2A                                            l398 0EF5  
                                          l479 0F25                                            l488 0F2B  
                                          l496 0F55                                            l891 0DC2  
                                          l884 0DD7                                            l894 0DD7  
                                          l991 0401                                            l995 047F  
                                          l997 045D                                            _PR2 001B  
                               ADC2Display@dis 00AD                                 ADC2Display@aux 00A8  
               ?_EUSART_SetFramingErrorHandler 0070                                _TMR2_Initialize 0BE4  
                                          wreg 0009                                   ___flmul@aexp 0042  
                                 ___flmul@bexp 0043                  TMR2_HasOverflowOccured@status 0070  
                                 ___flmul@sign 003D                                   ___flmul@temp 0048  
                ??_llenar_registros_del_Serial 0073                                   ___flmul@prod 0044  
                                 ___fltol@exp1 006D                                           l1012 0511  
                                         l1004 05B7                                           l1022 0555  
                                         l1016 0533                                           l1033 05B0  
                                         l1025 058D                                           l1106 0017  
                                         l1034 05B7                                           l1131 0F78  
                                         l1108 0027                                           l2100 03AF  
                                         l1037 0CB3                                           l1133 0FFF  
                                         l2110 03C0                                           l2102 03B1  
                                         l1071 03A4                                           l1063 0331  
                                         l1047 0253                                           l2120 03D6  
                                         l2112 03C8                                           l2104 03B5  
                                         l1144 0FCB                                           l1049 03AB  
                                         l1145 0FD7                                           l1137 0FB1  
                                         l2210 04A5                                           l2202 0491  
                                         l2130 03E4                                           l2122 03DC  
                                         l2114 03C9                                           l2106 03B6  
                                         l1068 037D                                           l2300 001E  
                                         l2212 04A7                                           l2204 0499  
                                         l2220 04BA                                           l2132 03E9  
                                         l2140 03F9                                           l2124 03DD  
                                         l2108 03BB                                           l2116 03CB  
                                         l1069 0397                                           l1093 0772  
                                         l2302 0023                                           l2222 04D1  
                                         l2230 0509                                           l2214 04AB  
                                         l2206 049D                                           l2150 0414  
                                         l2142 0407                                           l2134 03EE  
                                         l2126 03DF                                           l2118 03D3  
                                         l2310 0C38                                           l1087 07F2  
                                         l2240 052E                                           l2232 0519  
                                         l2224 04F5                                           l2216 04AC  
                                         l2208 04A1                                           l2160 041E  
                                         l2152 0416                                           l2144 040B  
                                         l2136 03F6                                           l2128 03E3  
                                         l2400 0DC7                                           l2320 0BD8  
                                         l2312 0C3A                                           l2410 0202  
                                         l2250 0541                                           l2242 0532  
                                         l2234 051E                                           l2226 04FB  
                                         l2218 04B5                                           l2170 0428  
                                         l2162 0420                                           l2154 0418  
                                         l2146 0410                                           l2138 03F7  
                                         l2402 0DCC                                           l2330 0BDF  
                                         l2322 0BD9                                           l2314 0C3D  
                                         l2306 0C32                                           l1099 07E6  
                                         l2500 0301                                           l2420 0212  
                                         l2412 0206                                           l2260 0552  
                                         l2244 0537                                           l2252 0543  
                                         l2228 0500                                           l2180 0447  
                                         l2172 042A                                           l2164 0422  
                                         l2156 041A                                           l2148 0412  
                                         l2404 0C94                                           l2332 0BE0  
                                         l2092 0BC2                                           l2316 0C42  
                                         l2308 0C35                                           l2340 0BE9  
                                         l2324 0BB2                                           l2510 0315  
                                         l2502 0305                                           l2430 022A  
                                         l2422 0217                                           l2414 0208  
                                         l2270 056B                                           l2246 053A  
                                         l2238 0527                                           l2254 0547  
                                         l2190 046C                                           l2182 0461  
                                         l2174 042C                                           l2166 0424  
                                         l2158 041C                                           l2406 0C97  
                                         l2094 0BC8                                           l2350 0CED  
                                         l2342 0CD5                                           l2326 0BAE  
                                         l2318 0BD5                                           l2334 0BE4  
                                         l2520 0336                                           l2512 0316  
                                         l2504 0306                                           l2440 023B  
                                         l2432 022F                                           l2424 021F  
                                         l2416 020C                                           l2600 064A  
                                         l2280 05A4                                           l2272 0589  
                                         l2264 055A                                           l2256 0548  
                                         l2248 053C                                           l2192 0475  
                                         l2184 0465                                           l2168 0426  
                                         l2176 042E                                           l2328 0BDC  
                                         l2096 0BBC                                           l2352 0CF4  
                                         l2344 0CDE                                           l2336 0BE7  
                                         l2522 033B                                           l2530 0363  
                                         l2514 031A                                           l2506 030D  
                                         l2450 025B                                           l2442 0240  
                                         l2434 0231                                           l2426 0220  
                                         l2418 020D                                           l2610 0690  
                                         l2602 0657                                           l2290 05B6  
                                         l2282 05A5                                           l2274 0592  
                                         l2266 055F                                           l2258 054C  
                                         l2186 0467                                           l2194 0479  
                                         l2178 042F                                           l2098 03AC  
                                         l2370 0D71                                           l2346 0CDF  
                                         l2338 0BE8                                           l2354 0BFF  
                                         l2362 0F30                                           l2540 039A  
                                         l2532 0370                                           l2524 0343  
                                         l2516 032E                                           l2508 0311  
                                         l2460 0279                                           l2452 0267  
                                         l2444 0248                                           l2436 0235  
                                         l2428 0222                                           l2292 0006  
                                         l2620 06C6                                           l2612 069B  
                                         l2604 066F                                           l2284 05A9  
                                         l2276 0597                                           l2268 0567  
                                         l2196 0483                                           l2188 046B  
                                         l2380 0D94                                           l2348 0CE6  
                                         l2356 0C04                                           l2542 039E  
                                         l2534 038B                                           l2526 0347  
                                         l2470 02A2                                           l2454 026B  
                                         l2446 0249                                           l2438 0236  
                                         l2294 0008                                           l2630 0711  
                                         l2622 06CD                                           l2614 06A2  
                                         l2606 067C                                           l2550 05B8  
                                         l2286 05AB                                           l2278 059F  
                                         l2198 0488                                           l2390 0DA2  
                                         l2382 0D96                                           l2374 0D7A  
                                         l2710 0FA2                                           l2702 0F89  
                                         l2358 0ED5                                           l2544 03A0  
                                         l2536 038E                                           l2528 035F  
                                         l2480 02C3                                           l2472 02AA  
                                         l2464 0282                                           l2448 024B  
                                         l2296 000F                                           l2640 0746  
                                         l2632 0728                                           l2624 06DF  
                                         l2616 06AD                                           l2608 0689  
                                         l2560 05C8                                           l2552 05BC  
                                         l2288 05B2                                           l2384 0D9A  
                                         l2392 0DB2                                           l2376 0D8B  
                                         l2368 0D67                                           l2720 0FCF  
                                         l2712 0FAA                                           l2704 0F8C  
                                         l2800 0D1E                                           l2538 0396  
                                         l2490 02E6                                           l2482 02C4  
                                         l2474 02AC                                           l2466 0292  
                                         l2458 0274                                           l2298 0013  
                                         l2650 0757                                           l2642 0747  
                                         l2634 072F                                           l2626 06EA  
                                         l2618 06B4                                           l2570 05E4  
                                         l2562 05CD                                           l2554 05BE  
                                         l2378 0D8C                                           l2730 0FF7  
                                         l2722 0FD9                                           l2714 0FB8  
                                         l2706 0F97                                           l2802 0D26  
                                         l2810 0D48                                           l2476 02B1  
                                         l2484 02CB                                           l2492 02EA  
                                         l2468 029A                                           l2660 077C  
                                         l2652 075B                                           l2644 074E  
                                         l2636 073B                                           l2628 06FC  
                                         l2580 05F5                                           l2572 05E6  
                                         l2564 05D5                                           l2556 05C2  
                                         l2724 0FED                                           l2716 0FC1  
                                         l2708 0F9E                                           l2740 0C29  
                                         l2812 0D50                                           l2804 0D2F  
                                         l2820 0DEF                                           l2494 02F0  
                                         l2486 02DD                                           l2478 02BF  
                                         l2670 07B1                                           l2662 0784  
                                         l2654 076F                                           l2638 0742  
                                         l2646 0752                                           l2590 0611  
                                         l2582 05FD                                           l2574 05EA  
                                         l2566 05D7                                           l2558 05C3  
                                         l2398 0DB9                                           l2726 0FF2  
                                         l2718 0FC5                                           l2750 0BCE  
                                         l2742 0C2E                                           l2734 0C48  
                                         l2806 0D38                                           l2830 0E25  
                                         l2822 0DFC                                           l2814 0DD9  
                                         l2910 0E60                                           l2496 02F8  
                                         l2488 02DE                                           l2680 07DF  
                                         l2672 07BB                                           l2664 0788  
                                         l2648 0756                                           l2584 05FF  
                                         l2576 05EB                                           l2568 05DF  
                                         l2728 0FF6                                           l2744 0C30  
                                         l2736 0C23                                           l2760 0C0D  
                                         l2808 0D3D                                           l2832 0E2C  
                                         l2824 0E06                                           l2816 0DDE  
                                         l2920 0E7D                                           l2912 0E64  
                                         l2498 02FA                                           l2682 07E3  
                                         l2674 07C9                                           l2666 07A0  
                                         l2658 0777                                           l2594 061A  
                                         l2586 0607                                           l2578 05F0  
                                         l2690 0F57                                           l2850 00B7  
                                         l2754 0BB6                                           l2738 0C24  
                                         l2762 0C12                                           l2842 0BED  
                                         l2770 0CF8                                           l2834 0E34  
                                         l2826 0E0D                                           l2818 0DE8  
                                         l2930 0E98                                           l2922 0E86  
                                         l2914 0E68                                           l2906 0E55  
                                         l2684 07E4                                           l2676 07D2  
                                         l2668 07A4                                           l2596 0625  
                                         l2588 060C                                           l2692 0F5C  
                                         l2860 01D4                                           l2852 00CF  
                                         l2748 0BAB                                           l2764 0C13  
                                         l2780 0CC9                                           l2772 0CFE  
                                         l2828 0E1A                                           l2836 0E3C  
                                         l2940 0EC5                                           l2932 0E9E  
                                         l2924 0E8A                                           l2916 0E6A  
                                         l2908 0E58                                           l2686 07EA  
                                         l2678 07D4                                           l2598 0632  
                                         l2694 0F60                                           l2862 01DE  
                                         l2854 0126                                           l2758 0C08  
                                         l2846 0BF5                                           l2790 0CCF  
                                         l2782 0CCB                                           l2774 0CB5  
                                         l2870 0029                                           l2942 0ECE  
                                         l2934 0E9F                                           l2926 0E8D  
                                         l2918 0E72                                           l2696 0F70  
                                         l2864 01E7                                           l2856 012C  
                                         l2848 0074                                           l2768 0C77  
                                         l2792 0CD0                                           l2784 0CCC  
                                         l2776 0CBD                                           l2880 0060  
                                         l2872 003B                                           l2936 0EA7  
                                         l2928 0E90                                           l2698 0F80  
                                         l2866 01F1                                           l2858 016C  
                                         l2890 0C5F                                           l2794 0CD1  
                                         l2786 0CCD                                           l2778 0CC2  
                                         l2882 0066                                           l2874 0045  
                                         l2938 0EB2                                           l2868 01FB  
                                         l2892 0C6D                                           l2796 0CD2  
                                         l2788 0CCE                                           l2884 006C  
                                         l2876 004A                                           l2798 0CD3  
                                         l2878 0055                                           l2886 0C16  
                                         l2984 0E49                                           l2986 0F35  
                                         u2000 0DB1                                           u2001 0DB0  
                                         u2010 0DB8                                           u2011 0DB7  
                                         u2100 0240                                           u2101 023F  
                                         u2110 025B                                           u2030 0DC7  
                                         u2111 025A                                           u2031 0DC6  
                                         u2200 02F8                                           u2120 0279  
                                         u2040 0DCC                                           u2201 02F7  
                                         u2121 0278                                           u2041 0DCB  
                                         u2025 0DBA                                           u2130 02B1  
                                         u2050 020C                                           u2131 02B0  
                                         u2051 020B                                           u2300 0355  
                                         u2220 0305                                           u2060 0212  
                                         u1500 03C0                                           u2221 0304  
                                         u2061 0211                                           u1501 03BF  
                                         _LATA 010C                                           u2310 0370  
                                         u2070 0217                                           u1510 03DC  
                                         _LATB 010D                                           u2311 036F  
                                         u2215 02FB                                           u2071 0216  
                                         u1511 03DB                                           u2320 038B  
                                         u2240 0315                                           u2160 02C3  
                                         u2080 0235                                           u2400 060C  
                                         u1600 0461                                           u1520 03E3  
                                         u2321 038A                                           u2305 0351  
                                         u2241 0314                                           u2161 02C2  
                                         u2145 02B2                                           u2081 0234  
                                         u2401 060B                                           u1601 0460  
                                         u1521 03E2                                           u2330 039E  
                                         u2250 031A                                           u2090 023B  
                                         u2410 0611                                           u1610 046B  
                                         u1530 03E9                                           u2331 039D  
                                         u2315 036C                                           u2251 0319  
                                         u2235 0307                                           u2155 02B9  
                                         u2091 023A                                           u2411 0610  
                                         u1611 046A                                           u1531 03E8  
                                         u2260 032E                                           u2180 02DD  
                                         u2500 0756                                           u2340 05C2  
                                         u1700 04D1                                           u1540 03EE  
                                         u2325 0387                                           u2261 032D  
                                         u2181 02DC                                           u2501 0755  
                                         u2341 05C1                                           u1701 04D0  
                                         u1541 03ED                                           u2270 0335  
                                         u2190 02F0                                           u2510 075B  
                                         u2350 05C8                                           u1710 0500  
                                         u1630 047F                                           u1550 0407  
                                         u2271 0334                                           u2191 02EF  
                                         u2175 02C5                                           u2511 075A  
                                         u2351 05C7                                           u1711 04FF  
                                         u1703 04CD                                           u1631 047E  
                                         u1551 0406                                           u2280 033B  
                                         u2520 076F                                           u2440 0707  
                                         u2360 05CD                                           u1800 0552  
                                         u1720 0519                                           u1640 0483  
                                         u1560 040B                                           u1480 03B5  
                                         u2600 0F5C                                           u2281 033A  
                                         u2185 02D9                                           u2521 076E  
                                         u2425 068A                                           u2361 05CC  
                                         u1801 0551                                           u1721 0518  
                                         u1641 0482                                           u1625 046F  
                                         u1561 040A                                           u1481 03B4  
                                         u2601 0F5B                                           u2290 0347  
                                         u2530 0776                                           u2450 071E  
                                         u2370 05EA                                           u1810 0559  
                                         u1730 051E                                           u1650 0488  
                                         u1570 0447                                           u1490 03BB  
                                         u2610 0F60                                           u2291 0346  
                                         u2531 0775                                           u2435 06B5  
                                         u2371 05E9                                           u1811 0558  
                                         u1731 051D                                           u1651 0487  
                                         u1571 0446                                           u1491 03BA  
                                         u2611 0F5F                                           u2540 077C  
                                         u2380 05F0                                           u1900 05B6  
                                         u1820 055F                                           u1660 049D  
                                         u1580 0450                                           u2700 0FCF  
                                         u2620 0F80                                           u2541 077B  
                                         u2445 0703                                           u2381 05EF  
                                         u1901 05B5                                           u1821 055E  
                                         u1661 049C                                           u1581 044E  
                                         u2701 0FCE                                           u2621 0F7F  
                                         u1910 0013                                           u2550 0788  
                                         u2390 05F5                                           u1830 056B  
                                         u1750 0532                                           u1670 04A1  
                                         u1590 0451                                           u2710 0FE3  
                                         u1911 0012                                           u2551 0787  
                                         u2455 071A                                           u2391 05F4  
                                         u1831 056A                                           u1751 0531  
                                         u1671 04A0                                           u1575 0443  
                                         u2560 0796                                           u2480 0746  
                                         u1840 057A                                           u1760 0537  
                                         u1680 04AB                                           u2720 0FF2  
                                         u2640 0F9D                                           u2800 0D50  
                                         u2481 0745                                           u2465 0729  
                                         u1761 0536                                           u1745 0528  
                                         u1681 04AA                                           u2721 0FF1  
                                         u2641 0F9C                                           u2801 0D4F  
                                         u1930 0023                                           u2570 07B1  
                                         u1850 0589                                           u1770 0541  
                                         u2730 0FF6                                           u2810 01DE  
                                         u1931 0022                                           u2571 07B0  
                                         u2475 073C                                           u1851 0588  
                                         u1771 0540                                           u2731 0FF5  
                                         u2715 0FDF                                           u2635 0F91  
                                         u2811 01DD                                           u2580 07C9  
                                         u1860 0592                                           u1780 0547  
                                         u2660 0FB7                                           u2820 01E7  
                                         u2740 0C29                                           u1940 0C04  
                                         u2900 0E98                                           u1925 0018  
                                         u2581 07C8                                           u2565 0792  
                                         u1861 0591                                           u1845 0576  
                                         u1781 0546                                           u2661 0FB6  
                                         u2821 01E6                                           u2741 0C28  
                                         u1941 0C03                                           u2901 0E97  
                                         u2590 07E3                                           u1870 0597  
                                         u1790 054C                                           u1950 0D71  
                                         u2830 01F1                                           u2750 0C2E  
                                         u2910 0E9E                                           u2591 07E2  
                                         u2575 07AD                                           u2495 0748  
                                         u1871 0596                                           u1791 054B  
                                         u1695 04AF                                           u1951 0D70  
                                         u2655 0FAB                                           u2831 01F0  
                                         u2751 0C2D                                           u2911 0E9D  
                                         u1880 05A4                                           u1960 0D87  
                                         u2680 0FC5                                           u2760 0C12  
                                         u2840 0C21                                           u2920 0EC5  
                                         u2585 07C5                                           u1881 05A3  
                                         u2681 0FC4                                           u2761 0C11  
                                         u2841 0C1F                                           u2921 0EC4  
                                         u1890 05A9                                           u1970 0D9A  
                                         u2690 0FCB                                           u2770 0D1C  
                                         u2850 0C22                                           u2930 0ECE  
                                         u1891 05A8                                           u1971 0D99  
                                         u2691 0FCA                                           u2675 0FBB  
                                         u2771 0D1B                                           u2931 0ECD  
                                         u1980 0DA1                                           u2780 0D26  
                                         u1981 0DA0                                           u1965 0D83  
                                         u2781 0D25                                           u2790 0D38  
                                         u2791 0D37                                           u2880 0E72  
                                         u2881 0E71                                           u2890 0E86  
                                         u1995 0DA3                                           u2891 0E85  
                                         _TMR2 001A                                           _WPUA 020C  
                                         _WPUB 020D                                           _main 0E55  
                                         fsr0h 0005                                           fsr1h 0007  
                                         indf0 0000                                           fsr0l 0004  
                                         indf1 0001                                           fsr1l 0006  
                                         btemp 007E                                           start 0002  
                              ___fldiv@new_exp 005C                                ?_FVR_Initialize 0070  
                                ?_EUSART_Write 0070                  __end_of_OSCILLATOR_Initialize 0BDC  
                                ___fltol@sign1 006C                                __end_of___fladd 05B8  
                                        ?_main 0070                                __end_of___fldiv 03AC  
                              __end_of___flmul 07F3                                __end_of___flsub 0CB4  
                              __end_of___fltol 0DD8                                          _T2CON 001C  
                  ??_inicializar_nuestroserial 0070                                          _RCREG 0199  
                                        _RCSTA 019D                                          _TRISA 008C  
                                        _TRISB 008D                                          _TXREG 019A  
                                        _TXSTA 019E                                   main@miserial 00B6  
                            ??_mostrar_Display 0074                                 _WDT_Initialize 0BB2  
                                        status 0003                                          wtemp0 007E  
                  __end_of_Tm_Inicie_periodico 0C94                                __initialization 07F3  
                                 __end_of_main 0ED5                              _Tm_Baje_periodico 0BF4  
                               ??_EUSART_Write 0070                        __end_of_TMR2_Initialize 0BEC  
                           ?_Tm_Baje_periodico 0070                                         ??_main 007E  
                                main@miDisplay 00C0                         __end_of_WDT_Initialize 0BB6  
                          ??_Tm_Baje_periodico 0070              _EUSART_DefaultFramingErrorHandler 0000  
                                       _ADCON0 009D                                         _ADCON1 009E  
                   _EUSART_OverrunErrorHandler 00D0                                         _ADRESH 009C  
                                       _ADRESL 009B                                         _ANSELA 018C  
                                       _ANSELB 018D                                         _BORCON 0116  
                                       _FVRCON 0117                     __end_of_EUSART_is_tx_ready 0C32  
                         _tengodatos_PorEnviar 0C15                                         _OSCCON 0099  
                                       _SPBRGH 019C                                         _SPBRGL 019B  
                                       _WDTCON 0097                      _inicializar_nuestroserial 0CF7  
                             __end_of___xxtofl 1000                              ADC2Display@adcVal 006E  
                    __end_of_Tm_Baje_periodico 0BFE                                      ??___fladd 0020  
                           mostrar_Display@dis 0076                                      ??___fldiv 0052  
                                    ??___flmul 0038                                      ??___flsub 007E  
                                    ??___fltol 0068                              _Tm_Hubo_periodico 0BEC  
                                ??_Prender_seg 0072                             ?_Tm_Hubo_periodico 0070  
                 inicializar_nuestroserial@ser 0071                                  main@timer_ADC 00AF  
                     ?_TMR2_HasOverflowOccured 0070                                ?_WDT_Initialize 0070  
                          ??_Tm_Hubo_periodico 0070                          ?_tengodatos_PorEnviar 0070  
                                 ___xxtofl@arg 007A                                   ___xxtofl@exp 0079  
                            _SYSTEM_Initialize 0C48                                   ___xxtofl@val 0070  
                      __end_of__initialization 07FD                             ?_SYSTEM_Initialize 0070  
                                   ___fltol@f1 0064                                  ??_ADC2Display 00A0  
                    __end_of_Tm_Hubo_periodico 0BF4                                 __pcstackCOMMON 0070  
                          ??_SYSTEM_Initialize 0072                               ?_TMR2_Initialize 0070  
                      _ADC_GetConversionResult 0BB6                                 _OPTION_REGbits 0095  
                          __end_of_Prender_seg 0F56                ??_EUSART_SetOverrunErrorHandler 0072  
                    __end_of_SYSTEM_Initialize 0C5E                                     __pbssBANK1 00C5  
                         __end_of_EUSART_Write 0C08                              __end_of__Umul8_16 0028  
                             ??_FVR_Initialize 0070                                     __pmaintext 0E55  
              __end_of_TMR2_HasOverflowOccured 0C15                                        _BAUDCON 019F  
                              _mostrar_Display 0DD8                                        _APFCON0 011D  
                                      _APFCON1 011E                            __end_of_ADC2Display 0202  
                 __end_of_enviarsiguiente_Dato 0C76                                      ?___xxtofl 0070  
                                      _OSCTUNE 0098                       ??_EUSART_SetErrorHandler 0072  
                       ??_tengodatos_PorEnviar 0070                              _Tm_Procese_tiempo 0D1D  
                           ?_Tm_Procese_tiempo 0070                   ?_inicializar_nuestro_Display 0070  
                         _ADC_InterruptHandler 00CB                            ??_Tm_Procese_tiempo 0070  
                                      ___fladd 03AC                                        ___fldiv 0202  
                                      ___flmul 05B8                                        ___flsub 0C94  
                                      ___fltol 0D67                                    _Prender_seg 0ED5  
                    ??_ADC_GetConversionResult 0072                                        _datoadc 00C9  
                             main@convirtiendo 00AE                                        __ptext1 0C15  
                                      __ptext2 0DD8                                        __ptext3 0ED5  
                                      __ptext4 0028                                        __ptext5 0CF7  
                                      __ptext6 0CB4                                        __ptext7 0C5E  
                                      __ptext8 0BFE                                        __ptext9 0D1D  
          __end_of_llenar_registros_del_Serial 0072                    _llenar_registros_del_Serial 0028  
                        _OSCILLATOR_Initialize 0BD5                                      _T2CONbits 001C  
                                   ??___xxtofl 0074                       ??_PIN_MANAGER_Initialize 0070  
                    __end_of_Tm_Procese_tiempo 0D67                             ADC2Display@voltios 00A9  
               llenar_registros_del_Serial@ser 0073                           end_of_initialization 07FD  
        __end_of_EUSART_SetOverrunErrorHandler 0BCE                  _EUSART_SetOverrunErrorHandler 0BC8  
                            _EUSART_Initialize 0CD5                  ??_inicializar_nuestro_Display 0070  
                 __end_of_ADC_IsConversionDone 0BD5                        __end_of_mostrar_Display 0E55  
                           ?_EUSART_Initialize 0070                                    _ADC2Display 0072  
                                    _RCSTAbits 019D                             _EUSART_is_tx_ready 0C23  
                      tengodatos_PorEnviar@ser 0070              __end_of_inicializar_nuestroserial 0D1D  
                          ??_EUSART_Initialize 0072                               ??_WDT_Initialize 0070  
                          ?_EUSART_is_tx_ready 0070                                    ___fladd@grs 007B  
                                ___xxtofl@sign 0078                            _ADC_StartConversion 0BAB  
                                  ___fldiv@grs 005E                                    ___fldiv@rem 0057  
                                  ___flmul@grs 003E                      __end_of_EUSART_Initialize 0CF7  
                         ??_EUSART_is_tx_ready 0070                                      _TXSTAbits 019E  
                         _enviarsiguiente_Dato 0C5E                           ?_ADC_StartConversion 0070  
                   _EUSART_DefaultErrorHandler 0000                                   _EUSART_Write 0BFE  
                               _ADC_Initialize 0BDC                         ?_OSCILLATOR_Initialize 0070  
                         Tm_Procese_tiempo@ctp 0074                            start_initialization 07F3  
                       _EUSART_is_tx_ready$254 0070                          ?_enviarsiguiente_Dato 0070  
                      mostrar_Display@caracter 0072                 ?_EUSART_SetOverrunErrorHandler 0070  
                        ??_ADC_StartConversion 0070                               ?_mostrar_Display 0072  
                       Tm_Inicie_periodico@ctp 0073                     _EUSART_FramingErrorHandler 00D2  
                       _EUSART_SetErrorHandler 0BBC                         __end_of_ADC_Initialize 0BE4  
                                    __Umul8_16 0005                                      ___fladd@a 0074  
                                    ___fladd@b 0070                                      ___fldiv@a 004A  
                                    ___fldiv@b 004E                                      ___flmul@a 0034  
                                    ___flmul@b 0030                                      ___flsub@a 0028  
                                    ___flsub@b 002C                                      ___latbits 0001  
                                __pcstackBANK0 0020                                  __pcstackBANK1 00A0  
                         _ADC_IsConversionDone 0BCE                 inicializar_nuestro_Display@dis 0070  
                                    __pnvBANK1 00CE                         _PIN_MANAGER_Initialize 0C32  
                                     ?___fladd 0070                                       ?___fldiv 004A  
                                     ?___flmul 0030                                       ?___flsub 0028  
                                     ?___fltol 0064                                     ?__Umul8_16 0070  
                              ?_ADC_Initialize 0070                                   ?_Prender_seg 0070  
                        ?_ADC_IsConversionDone 0070                            _Tm_Inicie_periodico 0C76  
                      _TMR2_HasOverflowOccured 0C08                         ??_enviarsiguiente_Dato 0071  
                                     _LATAbits 010C         EUSART_SetErrorHandler@interruptHandler 0070  
                                     _LATBbits 010D                              _eusartRxLastError 00CD  
                                     _PIR1bits 0011                ??_EUSART_SetFramingErrorHandler 0072  
                                 ?_ADC2Display 006E                           ?_Tm_Inicie_periodico 0070  
            _EUSART_DefaultOverrunErrorHandler 0000                                     _ADCON0bits 009D  
                            ??_TMR2_Initialize 0070                       ?_ADC_GetConversionResult 0070  
                        ??_Tm_Inicie_periodico 0072                        ??_OSCILLATOR_Initialize 0070  
                                  ??__Umul8_16 0072                            _EUSART_ErrorHandler 00CE  
                   ?_inicializar_nuestroserial 0070                         ??_ADC_IsConversionDone 0070  
                   Tm_Inicie_periodico@periodo 0070                                       _caracter 00C5  
                                     ___xxtofl 0F56                      ??_TMR2_HasOverflowOccured 0070  
                                     __ptext10 0C76                                       __ptext11 0BEC  
                                     __ptext20 0CD5                                       __ptext12 0BF4  
                                     __ptext21 0BC8                                       __ptext13 0C08  
                                     __ptext30 0F56                                       __ptext22 0BC2  
                                     __ptext14 0C48                                       __ptext31 0D67  
                                     __ptext23 0BBC                                       __ptext15 0BB2  
                                     __ptext32 0C94                                       __ptext24 0BDC  
                                     __ptext16 0BE4                                       __ptext33 03AC  
                                     __ptext25 0C23                                       __ptext17 0C32  
                                     __ptext34 05B8                                       __ptext26 0BAB  
                                     __ptext18 0BD5                                       __ptext35 0005  
                                     __ptext27 0BCE                                       __ptext19 0BAE  
                                     __ptext36 0202                                       __ptext28 0BB6  
                                     __ptext29 0072            __end_of_inicializar_nuestro_Display 0CD5  
                  _inicializar_nuestro_Display 0CB4                        ?_EUSART_SetErrorHandler 0070  
                         Tm_Baje_periodico@ctp 0071  EUSART_SetOverrunErrorHandler@interruptHandler 0070  
              llenar_registros_del_Serial@Dig1 0070                llenar_registros_del_Serial@Dig2 0071  
              llenar_registros_del_Serial@Dig3 0072          __end_of_EUSART_SetFramingErrorHandler 0BC8  
                _EUSART_SetFramingErrorHandler 0BC2                                     _FVRCONbits 0117  
                         Tm_Hubo_periodico@ctp 0070                    __end_of_ADC_StartConversion 0BAE  
                                  _num_Display 00C7                        ?_PIN_MANAGER_Initialize 0070  
              __end_of_ADC_GetConversionResult 0BBC                 __end_of_EUSART_SetErrorHandler 0BC2  
                             ??_ADC_Initialize 0070  EUSART_SetFramingErrorHandler@interruptHandler 0070  
                          Prender_seg@caracter 0070                        enviarsiguiente_Dato@ser 0072  
                             _ADC2Display$1444 00A4                                 _FVR_Initialize 0BAE  
                       __Umul8_16@multiplicand 0070                   ?_llenar_registros_del_Serial 0070  
                                ___fladd@signs 0078                             EUSART_Write@txData 0070  
               __end_of_PIN_MANAGER_Initialize 0C48                                   ___fladd@aexp 0079  
                                 ___fladd@bexp 007A                           __Umul8_16@multiplier 0078  
                            __Umul8_16@product 0074  
